; ModuleID = 'global.bc'
target datalayout = "e-p:64:64:64-i1:8:8-i8:8:8-i16:16:16-i32:32:32-i64:64:64-f32:32:32-f64:64:64-v64:64:64-v128:128:128-a0:0:64-s0:64:64-f80:128:128-n8:16:32:64-S128"
target triple = "x86_64-unknown-linux-gnu"

%struct.Thread = type { i32, i32, i32, i8*, [1 x %struct.__jmp_buf_tag], i32, %struct.pthread_cond_t*, i32, i32, i32, %struct.CleanupHandler* }
%struct.__jmp_buf_tag = type { [8 x i64], i32, %struct.__sigset_t }
%struct.__sigset_t = type { [16 x i64] }
%struct.pthread_cond_t = type { i32*, i32 }
%struct.CleanupHandler = type { void (i8*)*, i8*, %struct.CleanupHandler* }
%struct._PerThreadData = type { i8**, void (i8*)*, %struct._PerThreadData*, %struct._PerThreadData* }
%struct.Entry = type { i8* (i8*)*, i8*, i32 }
%struct.sched_param = type { i8 }
%struct.timespec = type { i8 }
%struct._ReadLock = type { i32, %struct._ReadLock* }
%struct.pthread_rwlock_t = type { i32, %struct._ReadLock* }

@i = global i32 33, align 4
@initialized = global i32 0, align 4
@alloc_pslots = global i32 0, align 4
@thread_counter = global i32 1, align 4
@threads = global %struct.Thread** null, align 8
@keys = global %struct._PerThreadData* null, align 8

define i8* @thread(i8* %x) nounwind uwtable {
  %1 = alloca i8*, align 8
  store i8* %x, i8** %1, align 8
  call void @llvm.dbg.declare(metadata !{i8** %1}, metadata !432), !dbg !433
  %2 = load i8** %1, align 8, !dbg !434
  %3 = load i32* @i, align 4, !dbg !436
  %4 = add nsw i32 %3, 1, !dbg !436
  store i32 %4, i32* @i, align 4, !dbg !436
  ret i8* null, !dbg !437
}

declare void @llvm.dbg.declare(metadata, metadata) nounwind readnone

define i32 @main() nounwind uwtable {
  %1 = alloca i32, align 4
  %tid = alloca i32, align 4
  store i32 0, i32* %1
  call void @llvm.dbg.declare(metadata !{i32* %tid}, metadata !438), !dbg !441
  %2 = call i32 @pthread_create(i32* %tid, i32* null, i8* (i8*)* @thread, i8* null), !dbg !442
  %3 = load i32* @i, align 4, !dbg !443
  %4 = add nsw i32 %3, 1, !dbg !443
  store i32 %4, i32* @i, align 4, !dbg !443
  %5 = load i32* %tid, align 4, !dbg !444
  %6 = call i32 @pthread_join(i32 %5, i8** null), !dbg !444
  %7 = load i32* @i, align 4, !dbg !445
  %8 = icmp eq i32 %7, 35, !dbg !445
  %9 = zext i1 %8 to i32, !dbg !445
  call void @__divine_assert(i32 %9), !dbg !445
  br label %10, !dbg !446

; <label>:10                                      ; preds = %10, %0
  br label %10, !dbg !446
                                                  ; No predecessors!
  %12 = load i32* %1, !dbg !447
  ret i32 %12, !dbg !447
}

declare void @__divine_assert(i32)

define i8* @malloc(i64 %size) uwtable noinline {
  %1 = alloca i64, align 8
  store i64 %size, i64* %1, align 8
  call void @llvm.dbg.declare(metadata !33, metadata !448), !dbg !449
  call void @__divine_interrupt_mask(), !dbg !450
  call void @__divine_interrupt_mask(), !dbg !452
  %2 = load i64* %1, align 8, !dbg !453
  %3 = call i8* @__divine_malloc(i64 %2), !dbg !453
  ret i8* %3, !dbg !453
}

declare void @__divine_interrupt_mask()

declare i8* @__divine_malloc(i64)

define void @free(i8* %p) uwtable noinline {
  %1 = alloca i8*, align 8
  store i8* %p, i8** %1, align 8
  call void @llvm.dbg.declare(metadata !33, metadata !454), !dbg !455
  call void @__divine_interrupt_mask(), !dbg !456
  %2 = load i8** %1, align 8, !dbg !458
  call void @__divine_free(i8* %2), !dbg !458
  ret void, !dbg !459
}

declare void @__divine_free(i8*)

define void @_ZSt9terminatev() nounwind uwtable {
  ret void, !dbg !460
}

define i32 @pthread_atfork(void ()*, void ()*, void ()*) nounwind uwtable noinline {
  %4 = alloca void ()*, align 8
  %5 = alloca void ()*, align 8
  %6 = alloca void ()*, align 8
  store void ()* %0, void ()** %4, align 8
  store void ()* %1, void ()** %5, align 8
  store void ()* %2, void ()** %6, align 8
  ret i32 0, !dbg !462
}

define i32 @_Z9_get_gtidi(i32 %ltid) nounwind uwtable {
  %1 = alloca i32, align 4
  %2 = alloca i32, align 4
  %gtid = alloca i32, align 4
  store i32 %ltid, i32* %2, align 4
  call void @llvm.dbg.declare(metadata !33, metadata !464), !dbg !465
  %3 = load i32* %2, align 4, !dbg !466
  %4 = sext i32 %3 to i64, !dbg !466
  %5 = load %struct.Thread*** @threads, align 8, !dbg !466
  %6 = getelementptr inbounds %struct.Thread** %5, i64 %4, !dbg !466
  %7 = load %struct.Thread** %6, align 8, !dbg !466
  %8 = icmp ne %struct.Thread* %7, null, !dbg !466
  br i1 %8, label %9, label %18, !dbg !466

; <label>:9                                       ; preds = %0
  call void @llvm.dbg.declare(metadata !33, metadata !468), !dbg !470
  %10 = load i32* %2, align 4, !dbg !471
  %11 = sext i32 %10 to i64, !dbg !471
  %12 = load %struct.Thread*** @threads, align 8, !dbg !471
  %13 = getelementptr inbounds %struct.Thread** %12, i64 %11, !dbg !471
  %14 = load %struct.Thread** %13, align 8, !dbg !471
  %15 = getelementptr inbounds %struct.Thread* %14, i32 0, i32 0, !dbg !471
  %16 = load i32* %15, align 4, !dbg !471
  store i32 %16, i32* %gtid, align 4, !dbg !471
  %17 = load i32* %gtid, align 4, !dbg !472
  store i32 %17, i32* %1, !dbg !472
  br label %19, !dbg !472

; <label>:18                                      ; preds = %0
  store i32 -1, i32* %1, !dbg !473
  br label %19, !dbg !473

; <label>:19                                      ; preds = %18, %9
  %20 = load i32* %1, !dbg !474
  ret i32 %20, !dbg !474
}

define void @_Z12_init_threadiii(i32 %gtid, i32 %ltid, i32 %attr) uwtable {
  %1 = alloca i32, align 4
  %2 = alloca i32, align 4
  %3 = alloca i32, align 4
  %key = alloca %struct._PerThreadData*, align 8
  %new_count = alloca i32, align 4
  %thread = alloca %struct.Thread*, align 8
  store i32 %gtid, i32* %1, align 4
  call void @llvm.dbg.declare(metadata !33, metadata !475), !dbg !476
  store i32 %ltid, i32* %2, align 4
  call void @llvm.dbg.declare(metadata !33, metadata !477), !dbg !478
  store i32 %attr, i32* %3, align 4
  call void @llvm.dbg.declare(metadata !33, metadata !479), !dbg !480
  %4 = load i32* %2, align 4, !dbg !481
  %5 = icmp sge i32 %4, 0, !dbg !481
  br i1 %5, label %6, label %9, !dbg !481

; <label>:6                                       ; preds = %0
  %7 = load i32* %1, align 4, !dbg !481
  %8 = icmp sge i32 %7, 0, !dbg !481
  br label %9

; <label>:9                                       ; preds = %6, %0
  %10 = phi i1 [ false, %0 ], [ %8, %6 ]
  %11 = zext i1 %10 to i32
  call void @__divine_assert(i32 %11)
  call void @llvm.dbg.declare(metadata !33, metadata !483), !dbg !484
  %12 = load i32* %2, align 4, !dbg !485
  %13 = load i32* @alloc_pslots, align 4, !dbg !485
  %14 = icmp uge i32 %12, %13, !dbg !485
  br i1 %14, label %15, label %48, !dbg !485

; <label>:15                                      ; preds = %9
  %16 = load i32* %2, align 4, !dbg !486
  %17 = load i32* @alloc_pslots, align 4, !dbg !486
  %18 = icmp eq i32 %16, %17, !dbg !486
  %19 = zext i1 %18 to i32, !dbg !486
  call void @__divine_assert(i32 %19), !dbg !486
  call void @llvm.dbg.declare(metadata !33, metadata !488), !dbg !489
  %20 = load i32* %2, align 4, !dbg !490
  %21 = add nsw i32 %20, 1, !dbg !490
  store i32 %21, i32* %new_count, align 4, !dbg !490
  %22 = load %struct.Thread*** @threads, align 8, !dbg !491
  %23 = load i32* @alloc_pslots, align 4, !dbg !491
  %24 = load i32* %new_count, align 4, !dbg !491
  %25 = call %struct.Thread** @_Z7reallocIP6ThreadEPT_S3_jj(%struct.Thread** %22, i32 %23, i32 %24), !dbg !491
  store %struct.Thread** %25, %struct.Thread*** @threads, align 8, !dbg !491
  %26 = load i32* %2, align 4, !dbg !492
  %27 = sext i32 %26 to i64, !dbg !492
  %28 = load %struct.Thread*** @threads, align 8, !dbg !492
  %29 = getelementptr inbounds %struct.Thread** %28, i64 %27, !dbg !492
  store %struct.Thread* null, %struct.Thread** %29, align 8, !dbg !492
  %30 = load %struct._PerThreadData** @keys, align 8, !dbg !493
  store %struct._PerThreadData* %30, %struct._PerThreadData** %key, align 8, !dbg !493
  br label %31, !dbg !494

; <label>:31                                      ; preds = %34, %15
  %32 = load %struct._PerThreadData** %key, align 8, !dbg !494
  %33 = icmp ne %struct._PerThreadData* %32, null, !dbg !494
  br i1 %33, label %34, label %46, !dbg !494

; <label>:34                                      ; preds = %31
  %35 = load %struct._PerThreadData** %key, align 8, !dbg !495
  %36 = getelementptr inbounds %struct._PerThreadData* %35, i32 0, i32 0, !dbg !495
  %37 = load i8*** %36, align 8, !dbg !495
  %38 = load i32* @alloc_pslots, align 4, !dbg !495
  %39 = load i32* %new_count, align 4, !dbg !495
  %40 = call i8** @_Z7reallocIPvEPT_S2_jj(i8** %37, i32 %38, i32 %39), !dbg !495
  %41 = load %struct._PerThreadData** %key, align 8, !dbg !495
  %42 = getelementptr inbounds %struct._PerThreadData* %41, i32 0, i32 0, !dbg !495
  store i8** %40, i8*** %42, align 8, !dbg !495
  %43 = load %struct._PerThreadData** %key, align 8, !dbg !497
  %44 = getelementptr inbounds %struct._PerThreadData* %43, i32 0, i32 2, !dbg !497
  %45 = load %struct._PerThreadData** %44, align 8, !dbg !497
  store %struct._PerThreadData* %45, %struct._PerThreadData** %key, align 8, !dbg !497
  br label %31, !dbg !498

; <label>:46                                      ; preds = %31
  %47 = load i32* %new_count, align 4, !dbg !499
  store i32 %47, i32* @alloc_pslots, align 4, !dbg !499
  br label %48, !dbg !500

; <label>:48                                      ; preds = %46, %9
  %49 = load i32* %2, align 4, !dbg !501
  %50 = sext i32 %49 to i64, !dbg !501
  %51 = load %struct.Thread*** @threads, align 8, !dbg !501
  %52 = getelementptr inbounds %struct.Thread** %51, i64 %50, !dbg !501
  %53 = load %struct.Thread** %52, align 8, !dbg !501
  %54 = icmp eq %struct.Thread* %53, null, !dbg !501
  %55 = zext i1 %54 to i32, !dbg !501
  call void @__divine_assert(i32 %55), !dbg !501
  %56 = call i8* @__divine_malloc(i64 264), !dbg !502
  %57 = bitcast i8* %56 to %struct.Thread*, !dbg !502
  %58 = load i32* %2, align 4, !dbg !502
  %59 = sext i32 %58 to i64, !dbg !502
  %60 = load %struct.Thread*** @threads, align 8, !dbg !502
  %61 = getelementptr inbounds %struct.Thread** %60, i64 %59, !dbg !502
  store %struct.Thread* %57, %struct.Thread** %61, align 8, !dbg !502
  %62 = load i32* %2, align 4, !dbg !503
  %63 = sext i32 %62 to i64, !dbg !503
  %64 = load %struct.Thread*** @threads, align 8, !dbg !503
  %65 = getelementptr inbounds %struct.Thread** %64, i64 %63, !dbg !503
  %66 = load %struct.Thread** %65, align 8, !dbg !503
  %67 = icmp ne %struct.Thread* %66, null, !dbg !503
  %68 = zext i1 %67 to i32, !dbg !503
  call void @__divine_assert(i32 %68), !dbg !503
  call void @llvm.dbg.declare(metadata !33, metadata !504), !dbg !505
  %69 = load i32* %2, align 4, !dbg !506
  %70 = sext i32 %69 to i64, !dbg !506
  %71 = load %struct.Thread*** @threads, align 8, !dbg !506
  %72 = getelementptr inbounds %struct.Thread** %71, i64 %70, !dbg !506
  %73 = load %struct.Thread** %72, align 8, !dbg !506
  store %struct.Thread* %73, %struct.Thread** %thread, align 8, !dbg !506
  %74 = load %struct.Thread** %thread, align 8, !dbg !507
  %75 = icmp ne %struct.Thread* %74, null, !dbg !507
  %76 = zext i1 %75 to i32, !dbg !507
  call void @__divine_assert(i32 %76), !dbg !507
  %77 = load i32* %1, align 4, !dbg !508
  %78 = load %struct.Thread** %thread, align 8, !dbg !508
  %79 = getelementptr inbounds %struct.Thread* %78, i32 0, i32 0, !dbg !508
  store i32 %77, i32* %79, align 4, !dbg !508
  %80 = load %struct.Thread** %thread, align 8, !dbg !509
  %81 = getelementptr inbounds %struct.Thread* %80, i32 0, i32 1, !dbg !509
  store i32 0, i32* %81, align 4, !dbg !509
  %82 = load i32* %3, align 4, !dbg !510
  %83 = and i32 %82, 1, !dbg !510
  %84 = icmp eq i32 %83, 1, !dbg !510
  %85 = zext i1 %84 to i32, !dbg !510
  %86 = load %struct.Thread** %thread, align 8, !dbg !510
  %87 = getelementptr inbounds %struct.Thread* %86, i32 0, i32 2, !dbg !510
  store i32 %85, i32* %87, align 4, !dbg !510
  %88 = load %struct.Thread** %thread, align 8, !dbg !511
  %89 = getelementptr inbounds %struct.Thread* %88, i32 0, i32 5, !dbg !511
  store i32 0, i32* %89, align 4, !dbg !511
  %90 = load %struct.Thread** %thread, align 8, !dbg !512
  %91 = getelementptr inbounds %struct.Thread* %90, i32 0, i32 3, !dbg !512
  store i8* null, i8** %91, align 8, !dbg !512
  %92 = load %struct.Thread** %thread, align 8, !dbg !513
  %93 = getelementptr inbounds %struct.Thread* %92, i32 0, i32 9, !dbg !513
  store i32 0, i32* %93, align 4, !dbg !513
  %94 = load %struct.Thread** %thread, align 8, !dbg !514
  %95 = getelementptr inbounds %struct.Thread* %94, i32 0, i32 7, !dbg !514
  store i32 0, i32* %95, align 4, !dbg !514
  %96 = load %struct.Thread** %thread, align 8, !dbg !515
  %97 = getelementptr inbounds %struct.Thread* %96, i32 0, i32 8, !dbg !515
  store i32 0, i32* %97, align 4, !dbg !515
  %98 = load %struct.Thread** %thread, align 8, !dbg !516
  %99 = getelementptr inbounds %struct.Thread* %98, i32 0, i32 10, !dbg !516
  store %struct.CleanupHandler* null, %struct.CleanupHandler** %99, align 8, !dbg !516
  %100 = load %struct._PerThreadData** @keys, align 8, !dbg !517
  store %struct._PerThreadData* %100, %struct._PerThreadData** %key, align 8, !dbg !517
  br label %101, !dbg !518

; <label>:101                                     ; preds = %104, %48
  %102 = load %struct._PerThreadData** %key, align 8, !dbg !518
  %103 = icmp ne %struct._PerThreadData* %102, null, !dbg !518
  br i1 %103, label %104, label %114, !dbg !518

; <label>:104                                     ; preds = %101
  %105 = load i32* %2, align 4, !dbg !519
  %106 = sext i32 %105 to i64, !dbg !519
  %107 = load %struct._PerThreadData** %key, align 8, !dbg !519
  %108 = getelementptr inbounds %struct._PerThreadData* %107, i32 0, i32 0, !dbg !519
  %109 = load i8*** %108, align 8, !dbg !519
  %110 = getelementptr inbounds i8** %109, i64 %106, !dbg !519
  store i8* null, i8** %110, align 8, !dbg !519
  %111 = load %struct._PerThreadData** %key, align 8, !dbg !521
  %112 = getelementptr inbounds %struct._PerThreadData* %111, i32 0, i32 2, !dbg !521
  %113 = load %struct._PerThreadData** %112, align 8, !dbg !521
  store %struct._PerThreadData* %113, %struct._PerThreadData** %key, align 8, !dbg !521
  br label %101, !dbg !522

; <label>:114                                     ; preds = %101
  ret void, !dbg !523
}

define linkonce_odr %struct.Thread** @_Z7reallocIP6ThreadEPT_S3_jj(%struct.Thread** %old_ptr, i32 %old_count, i32 %new_count) uwtable {
  %1 = alloca %struct.Thread**, align 8
  %2 = alloca i32, align 4
  %3 = alloca i32, align 4
  %new_ptr = alloca %struct.Thread**, align 8
  %i = alloca i32, align 4
  store %struct.Thread** %old_ptr, %struct.Thread*** %1, align 8
  call void @llvm.dbg.declare(metadata !33, metadata !524), !dbg !525
  store i32 %old_count, i32* %2, align 4
  call void @llvm.dbg.declare(metadata !33, metadata !526), !dbg !527
  store i32 %new_count, i32* %3, align 4
  call void @llvm.dbg.declare(metadata !33, metadata !528), !dbg !529
  call void @llvm.dbg.declare(metadata !33, metadata !530), !dbg !532
  %4 = load i32* %3, align 4, !dbg !533
  %5 = zext i32 %4 to i64, !dbg !533
  %6 = mul i64 8, %5, !dbg !533
  %7 = call i8* @__divine_malloc(i64 %6), !dbg !533
  %8 = bitcast i8* %7 to %struct.Thread**, !dbg !533
  store %struct.Thread** %8, %struct.Thread*** %new_ptr, align 8, !dbg !533
  %9 = load %struct.Thread*** %1, align 8, !dbg !534
  %10 = icmp ne %struct.Thread** %9, null, !dbg !534
  br i1 %10, label %11, label %37, !dbg !534

; <label>:11                                      ; preds = %0
  call void @llvm.dbg.declare(metadata !33, metadata !535), !dbg !538
  store i32 0, i32* %i, align 4, !dbg !539
  br label %12, !dbg !539

; <label>:12                                      ; preds = %31, %11
  %13 = load i32* %i, align 4, !dbg !539
  %14 = load i32* %2, align 4, !dbg !539
  %15 = load i32* %3, align 4, !dbg !539
  %16 = icmp ult i32 %14, %15, !dbg !539
  %17 = load i32* %2, align 4, !dbg !539
  %18 = load i32* %3, align 4, !dbg !539
  %19 = select i1 %16, i32 %17, i32 %18, !dbg !539
  %20 = icmp ult i32 %13, %19, !dbg !539
  br i1 %20, label %21, label %34, !dbg !539

; <label>:21                                      ; preds = %12
  %22 = load i32* %i, align 4, !dbg !540
  %23 = sext i32 %22 to i64, !dbg !540
  %24 = load %struct.Thread*** %1, align 8, !dbg !540
  %25 = getelementptr inbounds %struct.Thread** %24, i64 %23, !dbg !540
  %26 = load %struct.Thread** %25, align 8, !dbg !540
  %27 = load i32* %i, align 4, !dbg !540
  %28 = sext i32 %27 to i64, !dbg !540
  %29 = load %struct.Thread*** %new_ptr, align 8, !dbg !540
  %30 = getelementptr inbounds %struct.Thread** %29, i64 %28, !dbg !540
  store %struct.Thread* %26, %struct.Thread** %30, align 8, !dbg !540
  br label %31, !dbg !540

; <label>:31                                      ; preds = %21
  %32 = load i32* %i, align 4, !dbg !541
  %33 = add nsw i32 %32, 1, !dbg !541
  store i32 %33, i32* %i, align 4, !dbg !541
  br label %12, !dbg !541

; <label>:34                                      ; preds = %12
  %35 = load %struct.Thread*** %1, align 8, !dbg !542
  %36 = bitcast %struct.Thread** %35 to i8*, !dbg !542
  call void @__divine_free(i8* %36), !dbg !542
  br label %37, !dbg !543

; <label>:37                                      ; preds = %34, %0
  %38 = load %struct.Thread*** %new_ptr, align 8, !dbg !544
  ret %struct.Thread** %38, !dbg !544
}

define linkonce_odr i8** @_Z7reallocIPvEPT_S2_jj(i8** %old_ptr, i32 %old_count, i32 %new_count) uwtable {
  %1 = alloca i8**, align 8
  %2 = alloca i32, align 4
  %3 = alloca i32, align 4
  %new_ptr = alloca i8**, align 8
  %i = alloca i32, align 4
  store i8** %old_ptr, i8*** %1, align 8
  call void @llvm.dbg.declare(metadata !33, metadata !545), !dbg !546
  store i32 %old_count, i32* %2, align 4
  call void @llvm.dbg.declare(metadata !33, metadata !547), !dbg !548
  store i32 %new_count, i32* %3, align 4
  call void @llvm.dbg.declare(metadata !33, metadata !549), !dbg !550
  call void @llvm.dbg.declare(metadata !33, metadata !551), !dbg !553
  %4 = load i32* %3, align 4, !dbg !554
  %5 = zext i32 %4 to i64, !dbg !554
  %6 = mul i64 8, %5, !dbg !554
  %7 = call i8* @__divine_malloc(i64 %6), !dbg !554
  %8 = bitcast i8* %7 to i8**, !dbg !554
  store i8** %8, i8*** %new_ptr, align 8, !dbg !554
  %9 = load i8*** %1, align 8, !dbg !555
  %10 = icmp ne i8** %9, null, !dbg !555
  br i1 %10, label %11, label %37, !dbg !555

; <label>:11                                      ; preds = %0
  call void @llvm.dbg.declare(metadata !33, metadata !556), !dbg !559
  store i32 0, i32* %i, align 4, !dbg !560
  br label %12, !dbg !560

; <label>:12                                      ; preds = %31, %11
  %13 = load i32* %i, align 4, !dbg !560
  %14 = load i32* %2, align 4, !dbg !560
  %15 = load i32* %3, align 4, !dbg !560
  %16 = icmp ult i32 %14, %15, !dbg !560
  %17 = load i32* %2, align 4, !dbg !560
  %18 = load i32* %3, align 4, !dbg !560
  %19 = select i1 %16, i32 %17, i32 %18, !dbg !560
  %20 = icmp ult i32 %13, %19, !dbg !560
  br i1 %20, label %21, label %34, !dbg !560

; <label>:21                                      ; preds = %12
  %22 = load i32* %i, align 4, !dbg !561
  %23 = sext i32 %22 to i64, !dbg !561
  %24 = load i8*** %1, align 8, !dbg !561
  %25 = getelementptr inbounds i8** %24, i64 %23, !dbg !561
  %26 = load i8** %25, align 8, !dbg !561
  %27 = load i32* %i, align 4, !dbg !561
  %28 = sext i32 %27 to i64, !dbg !561
  %29 = load i8*** %new_ptr, align 8, !dbg !561
  %30 = getelementptr inbounds i8** %29, i64 %28, !dbg !561
  store i8* %26, i8** %30, align 8, !dbg !561
  br label %31, !dbg !561

; <label>:31                                      ; preds = %21
  %32 = load i32* %i, align 4, !dbg !562
  %33 = add nsw i32 %32, 1, !dbg !562
  store i32 %33, i32* %i, align 4, !dbg !562
  br label %12, !dbg !562

; <label>:34                                      ; preds = %12
  %35 = load i8*** %1, align 8, !dbg !563
  %36 = bitcast i8** %35 to i8*, !dbg !563
  call void @__divine_free(i8* %36), !dbg !563
  br label %37, !dbg !564

; <label>:37                                      ; preds = %34, %0
  %38 = load i8*** %new_ptr, align 8, !dbg !565
  ret i8** %38, !dbg !565
}

define void @_Z11_initializev() uwtable {
  %1 = load i32* @initialized, align 4, !dbg !566
  %2 = icmp ne i32 %1, 0, !dbg !566
  br i1 %2, label %11, label %3, !dbg !566

; <label>:3                                       ; preds = %0
  %4 = load i32* @alloc_pslots, align 4, !dbg !568
  %5 = icmp eq i32 %4, 0, !dbg !568
  %6 = zext i1 %5 to i32, !dbg !568
  call void @__divine_assert(i32 %6), !dbg !568
  call void @_Z12_init_threadiii(i32 0, i32 0, i32 1), !dbg !570
  %7 = load %struct.Thread*** @threads, align 8, !dbg !571
  %8 = getelementptr inbounds %struct.Thread** %7, i64 0, !dbg !571
  %9 = load %struct.Thread** %8, align 8, !dbg !571
  %10 = getelementptr inbounds %struct.Thread* %9, i32 0, i32 1, !dbg !571
  store i32 1, i32* %10, align 4, !dbg !571
  call void @__divine_assert(i32 1), !dbg !572
  store i32 1, i32* @initialized, align 4, !dbg !573
  br label %11, !dbg !574

; <label>:11                                      ; preds = %3, %0
  ret void, !dbg !575
}

define void @_Z8_cleanupv() uwtable {
  %ltid = alloca i32, align 4
  %handler = alloca %struct.CleanupHandler*, align 8
  %next = alloca %struct.CleanupHandler*, align 8
  call void @llvm.dbg.declare(metadata !33, metadata !576), !dbg !578
  %1 = call i32 @__divine_get_tid(), !dbg !579
  store i32 %1, i32* %ltid, align 4, !dbg !579
  call void @llvm.dbg.declare(metadata !33, metadata !580), !dbg !581
  %2 = load i32* %ltid, align 4, !dbg !582
  %3 = sext i32 %2 to i64, !dbg !582
  %4 = load %struct.Thread*** @threads, align 8, !dbg !582
  %5 = getelementptr inbounds %struct.Thread** %4, i64 %3, !dbg !582
  %6 = load %struct.Thread** %5, align 8, !dbg !582
  %7 = getelementptr inbounds %struct.Thread* %6, i32 0, i32 10, !dbg !582
  %8 = load %struct.CleanupHandler** %7, align 8, !dbg !582
  store %struct.CleanupHandler* %8, %struct.CleanupHandler** %handler, align 8, !dbg !582
  %9 = load i32* %ltid, align 4, !dbg !583
  %10 = sext i32 %9 to i64, !dbg !583
  %11 = load %struct.Thread*** @threads, align 8, !dbg !583
  %12 = getelementptr inbounds %struct.Thread** %11, i64 %10, !dbg !583
  %13 = load %struct.Thread** %12, align 8, !dbg !583
  %14 = getelementptr inbounds %struct.Thread* %13, i32 0, i32 10, !dbg !583
  store %struct.CleanupHandler* null, %struct.CleanupHandler** %14, align 8, !dbg !583
  call void @llvm.dbg.declare(metadata !33, metadata !584), !dbg !585
  br label %15, !dbg !586

; <label>:15                                      ; preds = %18, %0
  %16 = load %struct.CleanupHandler** %handler, align 8, !dbg !586
  %17 = icmp ne %struct.CleanupHandler* %16, null, !dbg !586
  br i1 %17, label %18, label %31, !dbg !586

; <label>:18                                      ; preds = %15
  %19 = load %struct.CleanupHandler** %handler, align 8, !dbg !587
  %20 = getelementptr inbounds %struct.CleanupHandler* %19, i32 0, i32 2, !dbg !587
  %21 = load %struct.CleanupHandler** %20, align 8, !dbg !587
  store %struct.CleanupHandler* %21, %struct.CleanupHandler** %next, align 8, !dbg !587
  %22 = load %struct.CleanupHandler** %handler, align 8, !dbg !589
  %23 = getelementptr inbounds %struct.CleanupHandler* %22, i32 0, i32 0, !dbg !589
  %24 = load void (i8*)** %23, align 8, !dbg !589
  %25 = load %struct.CleanupHandler** %handler, align 8, !dbg !589
  %26 = getelementptr inbounds %struct.CleanupHandler* %25, i32 0, i32 1, !dbg !589
  %27 = load i8** %26, align 8, !dbg !589
  call void %24(i8* %27), !dbg !589
  %28 = load %struct.CleanupHandler** %handler, align 8, !dbg !590
  %29 = bitcast %struct.CleanupHandler* %28 to i8*, !dbg !590
  call void @__divine_free(i8* %29), !dbg !590
  %30 = load %struct.CleanupHandler** %next, align 8, !dbg !591
  store %struct.CleanupHandler* %30, %struct.CleanupHandler** %handler, align 8, !dbg !591
  br label %15, !dbg !592

; <label>:31                                      ; preds = %15
  ret void, !dbg !593
}

declare i32 @__divine_get_tid()

define void @_Z7_cancelv() uwtable {
  %ltid = alloca i32, align 4
  call void @llvm.dbg.declare(metadata !33, metadata !594), !dbg !596
  %1 = call i32 @__divine_get_tid(), !dbg !597
  store i32 %1, i32* %ltid, align 4, !dbg !597
  %2 = load i32* %ltid, align 4, !dbg !598
  %3 = sext i32 %2 to i64, !dbg !598
  %4 = load %struct.Thread*** @threads, align 8, !dbg !598
  %5 = getelementptr inbounds %struct.Thread** %4, i64 %3, !dbg !598
  %6 = load %struct.Thread** %5, align 8, !dbg !598
  %7 = getelementptr inbounds %struct.Thread* %6, i32 0, i32 5, !dbg !598
  store i32 0, i32* %7, align 4, !dbg !598
  call void @_Z8_cleanupv(), !dbg !599
  ret void, !dbg !600
}

define i32 @_Z9_canceledv() uwtable {
  %ltid = alloca i32, align 4
  call void @llvm.dbg.declare(metadata !33, metadata !601), !dbg !603
  %1 = call i32 @__divine_get_tid(), !dbg !604
  store i32 %1, i32* %ltid, align 4, !dbg !604
  %2 = load i32* %ltid, align 4, !dbg !605
  %3 = sext i32 %2 to i64, !dbg !605
  %4 = load %struct.Thread*** @threads, align 8, !dbg !605
  %5 = getelementptr inbounds %struct.Thread** %4, i64 %3, !dbg !605
  %6 = load %struct.Thread** %5, align 8, !dbg !605
  %7 = getelementptr inbounds %struct.Thread* %6, i32 0, i32 9, !dbg !605
  %8 = load i32* %7, align 4, !dbg !605
  ret i32 %8, !dbg !605
}

define void @_Z14_pthread_entryPv(i8* %_args) uwtable {
  %1 = alloca i8*, align 8
  %args = alloca %struct.Entry*, align 8
  %ltid = alloca i32, align 4
  %thread = alloca %struct.Thread*, align 8
  %key = alloca %struct._PerThreadData*, align 8
  %arg = alloca i8*, align 8
  %entry = alloca i8* (i8*)*, align 8
  %data = alloca i8*, align 8
  %iter = alloca i32, align 4
  store i8* %_args, i8** %1, align 8
  call void @llvm.dbg.declare(metadata !33, metadata !606), !dbg !607
  br label %2, !dbg !608

; <label>:2                                       ; preds = %0
  call void @__divine_interrupt_mask(), !dbg !610
  call void @_Z11_initializev(), !dbg !610
  br label %3, !dbg !610

; <label>:3                                       ; preds = %2
  call void @llvm.dbg.declare(metadata !33, metadata !612), !dbg !619
  %4 = load i8** %1, align 8, !dbg !620
  %5 = bitcast i8* %4 to %struct.Entry*, !dbg !620
  store %struct.Entry* %5, %struct.Entry** %args, align 8, !dbg !620
  call void @llvm.dbg.declare(metadata !33, metadata !621), !dbg !622
  %6 = call i32 @__divine_get_tid(), !dbg !623
  store i32 %6, i32* %ltid, align 4, !dbg !623
  %7 = load i32* %ltid, align 4, !dbg !624
  %8 = load i32* @alloc_pslots, align 4, !dbg !624
  %9 = icmp ult i32 %7, %8, !dbg !624
  %10 = zext i1 %9 to i32, !dbg !624
  call void @__divine_assert(i32 %10), !dbg !624
  call void @llvm.dbg.declare(metadata !33, metadata !625), !dbg !626
  %11 = load i32* %ltid, align 4, !dbg !627
  %12 = sext i32 %11 to i64, !dbg !627
  %13 = load %struct.Thread*** @threads, align 8, !dbg !627
  %14 = getelementptr inbounds %struct.Thread** %13, i64 %12, !dbg !627
  %15 = load %struct.Thread** %14, align 8, !dbg !627
  store %struct.Thread* %15, %struct.Thread** %thread, align 8, !dbg !627
  %16 = load %struct.Thread** %thread, align 8, !dbg !628
  %17 = icmp ne %struct.Thread* %16, null, !dbg !628
  %18 = zext i1 %17 to i32, !dbg !628
  call void @__divine_assert(i32 %18), !dbg !628
  call void @llvm.dbg.declare(metadata !33, metadata !629), !dbg !630
  call void @llvm.dbg.declare(metadata !33, metadata !631), !dbg !632
  %19 = load %struct.Entry** %args, align 8, !dbg !633
  %20 = getelementptr inbounds %struct.Entry* %19, i32 0, i32 1, !dbg !633
  %21 = load i8** %20, align 8, !dbg !633
  store i8* %21, i8** %arg, align 8, !dbg !633
  call void @llvm.dbg.declare(metadata !33, metadata !634), !dbg !635
  %22 = load %struct.Entry** %args, align 8, !dbg !636
  %23 = getelementptr inbounds %struct.Entry* %22, i32 0, i32 0, !dbg !636
  %24 = load i8* (i8*)** %23, align 8, !dbg !636
  store i8* (i8*)* %24, i8* (i8*)** %entry, align 8, !dbg !636
  %25 = load %struct.Entry** %args, align 8, !dbg !637
  %26 = getelementptr inbounds %struct.Entry* %25, i32 0, i32 2, !dbg !637
  store i32 1, i32* %26, align 4, !dbg !637
  %27 = load %struct.Thread** %thread, align 8, !dbg !638
  %28 = getelementptr inbounds %struct.Thread* %27, i32 0, i32 1, !dbg !638
  store i32 1, i32* %28, align 4, !dbg !638
  call void @__divine_interrupt_unmask(), !dbg !639
  %29 = load i8* (i8*)** %entry, align 8, !dbg !640
  %30 = load i8** %arg, align 8, !dbg !640
  %31 = call i8* %29(i8* %30), !dbg !640
  %32 = load %struct.Thread** %thread, align 8, !dbg !640
  %33 = getelementptr inbounds %struct.Thread* %32, i32 0, i32 3, !dbg !640
  store i8* %31, i8** %33, align 8, !dbg !640
  call void @__divine_interrupt_mask(), !dbg !641
  %34 = load %struct.Thread** %thread, align 8, !dbg !642
  %35 = getelementptr inbounds %struct.Thread* %34, i32 0, i32 5, !dbg !642
  %36 = load i32* %35, align 4, !dbg !642
  %37 = icmp eq i32 %36, 0, !dbg !642
  %38 = zext i1 %37 to i32, !dbg !642
  call void @__divine_assert(i32 %38), !dbg !642
  %39 = load %struct._PerThreadData** @keys, align 8, !dbg !643
  store %struct._PerThreadData* %39, %struct._PerThreadData** %key, align 8, !dbg !643
  br label %40, !dbg !644

; <label>:40                                      ; preds = %77, %3
  %41 = load %struct._PerThreadData** %key, align 8, !dbg !644
  %42 = icmp ne %struct._PerThreadData* %41, null, !dbg !644
  br i1 %42, label %43, label %81, !dbg !644

; <label>:43                                      ; preds = %40
  call void @llvm.dbg.declare(metadata !33, metadata !645), !dbg !647
  %44 = load %struct._PerThreadData** %key, align 8, !dbg !648
  %45 = call i8* @pthread_getspecific(%struct._PerThreadData* %44), !dbg !648
  store i8* %45, i8** %data, align 8, !dbg !648
  %46 = load i8** %data, align 8, !dbg !649
  %47 = icmp ne i8* %46, null, !dbg !649
  br i1 %47, label %48, label %77, !dbg !649

; <label>:48                                      ; preds = %43
  %49 = load %struct._PerThreadData** %key, align 8, !dbg !650
  %50 = call i32 @pthread_setspecific(%struct._PerThreadData* %49, i8* null), !dbg !650
  %51 = load %struct._PerThreadData** %key, align 8, !dbg !652
  %52 = getelementptr inbounds %struct._PerThreadData* %51, i32 0, i32 1, !dbg !652
  %53 = load void (i8*)** %52, align 8, !dbg !652
  %54 = icmp ne void (i8*)* %53, null, !dbg !652
  br i1 %54, label %55, label %76, !dbg !652

; <label>:55                                      ; preds = %48
  call void @llvm.dbg.declare(metadata !33, metadata !653), !dbg !655
  store i32 0, i32* %iter, align 4, !dbg !656
  br label %56, !dbg !657

; <label>:56                                      ; preds = %64, %55
  %57 = load i8** %data, align 8, !dbg !657
  %58 = icmp ne i8* %57, null, !dbg !657
  br i1 %58, label %59, label %62, !dbg !657

; <label>:59                                      ; preds = %56
  %60 = load i32* %iter, align 4, !dbg !657
  %61 = icmp slt i32 %60, 8, !dbg !657
  br label %62

; <label>:62                                      ; preds = %59, %56
  %63 = phi i1 [ false, %56 ], [ %61, %59 ]
  br i1 %63, label %64, label %75

; <label>:64                                      ; preds = %62
  %65 = load %struct._PerThreadData** %key, align 8, !dbg !658
  %66 = getelementptr inbounds %struct._PerThreadData* %65, i32 0, i32 1, !dbg !658
  %67 = load void (i8*)** %66, align 8, !dbg !658
  %68 = load i8** %data, align 8, !dbg !658
  call void %67(i8* %68), !dbg !658
  %69 = load %struct._PerThreadData** %key, align 8, !dbg !660
  %70 = call i8* @pthread_getspecific(%struct._PerThreadData* %69), !dbg !660
  store i8* %70, i8** %data, align 8, !dbg !660
  %71 = load %struct._PerThreadData** %key, align 8, !dbg !661
  %72 = call i32 @pthread_setspecific(%struct._PerThreadData* %71, i8* null), !dbg !661
  %73 = load i32* %iter, align 4, !dbg !662
  %74 = add nsw i32 %73, 1, !dbg !662
  store i32 %74, i32* %iter, align 4, !dbg !662
  br label %56, !dbg !663

; <label>:75                                      ; preds = %62
  br label %76, !dbg !664

; <label>:76                                      ; preds = %75, %48
  br label %77, !dbg !665

; <label>:77                                      ; preds = %76, %43
  %78 = load %struct._PerThreadData** %key, align 8, !dbg !666
  %79 = getelementptr inbounds %struct._PerThreadData* %78, i32 0, i32 2, !dbg !666
  %80 = load %struct._PerThreadData** %79, align 8, !dbg !666
  store %struct._PerThreadData* %80, %struct._PerThreadData** %key, align 8, !dbg !666
  br label %40, !dbg !667

; <label>:81                                      ; preds = %40
  %82 = load %struct.Thread** %thread, align 8, !dbg !668
  %83 = getelementptr inbounds %struct.Thread* %82, i32 0, i32 1, !dbg !668
  store i32 0, i32* %83, align 4, !dbg !668
  br label %84, !dbg !669

; <label>:84                                      ; preds = %81
  br label %85, !dbg !670

; <label>:85                                      ; preds = %93, %84
  %86 = load %struct.Thread** %thread, align 8, !dbg !670
  %87 = getelementptr inbounds %struct.Thread* %86, i32 0, i32 2, !dbg !670
  %88 = load i32* %87, align 4, !dbg !670
  %89 = icmp ne i32 %88, 0, !dbg !670
  br i1 %89, label %91, label %90, !dbg !670

; <label>:90                                      ; preds = %85
  br label %91

; <label>:91                                      ; preds = %90, %85
  %92 = phi i1 [ false, %85 ], [ true, %90 ]
  br i1 %92, label %93, label %94

; <label>:93                                      ; preds = %91
  call void @__divine_interrupt_unmask(), !dbg !672
  call void @__divine_interrupt_mask(), !dbg !672
  br label %85, !dbg !672

; <label>:94                                      ; preds = %91
  br label %95, !dbg !672

; <label>:95                                      ; preds = %94
  %96 = load %struct.Thread** %thread, align 8, !dbg !674
  %97 = bitcast %struct.Thread* %96 to i8*, !dbg !674
  call void @__divine_free(i8* %97), !dbg !674
  %98 = load i32* %ltid, align 4, !dbg !675
  %99 = sext i32 %98 to i64, !dbg !675
  %100 = load %struct.Thread*** @threads, align 8, !dbg !675
  %101 = getelementptr inbounds %struct.Thread** %100, i64 %99, !dbg !675
  store %struct.Thread* null, %struct.Thread** %101, align 8, !dbg !675
  ret void, !dbg !676
}

declare void @__divine_interrupt_unmask()

define i8* @pthread_getspecific(%struct._PerThreadData* %key) uwtable noinline {
  %1 = alloca %struct._PerThreadData*, align 8
  %ltid = alloca i32, align 4
  store %struct._PerThreadData* %key, %struct._PerThreadData** %1, align 8
  call void @llvm.dbg.declare(metadata !33, metadata !677), !dbg !678
  br label %2, !dbg !679

; <label>:2                                       ; preds = %0
  call void @__divine_interrupt_mask(), !dbg !681
  call void @_Z11_initializev(), !dbg !681
  br label %3, !dbg !681

; <label>:3                                       ; preds = %2
  %4 = load %struct._PerThreadData** %1, align 8, !dbg !683
  %5 = icmp ne %struct._PerThreadData* %4, null, !dbg !683
  %6 = zext i1 %5 to i32, !dbg !683
  call void @__divine_assert(i32 %6), !dbg !683
  call void @llvm.dbg.declare(metadata !33, metadata !684), !dbg !685
  %7 = call i32 @__divine_get_tid(), !dbg !686
  store i32 %7, i32* %ltid, align 4, !dbg !686
  %8 = load i32* %ltid, align 4, !dbg !687
  %9 = load i32* @alloc_pslots, align 4, !dbg !687
  %10 = icmp ult i32 %8, %9, !dbg !687
  %11 = zext i1 %10 to i32, !dbg !687
  call void @__divine_assert(i32 %11), !dbg !687
  %12 = load i32* %ltid, align 4, !dbg !688
  %13 = sext i32 %12 to i64, !dbg !688
  %14 = load %struct._PerThreadData** %1, align 8, !dbg !688
  %15 = getelementptr inbounds %struct._PerThreadData* %14, i32 0, i32 0, !dbg !688
  %16 = load i8*** %15, align 8, !dbg !688
  %17 = getelementptr inbounds i8** %16, i64 %13, !dbg !688
  %18 = load i8** %17, align 8, !dbg !688
  ret i8* %18, !dbg !688
}

define i32 @pthread_setspecific(%struct._PerThreadData* %key, i8* %data) uwtable noinline {
  %1 = alloca i32, align 4
  %2 = alloca %struct._PerThreadData*, align 8
  %3 = alloca i8*, align 8
  %ltid = alloca i32, align 4
  store %struct._PerThreadData* %key, %struct._PerThreadData** %2, align 8
  call void @llvm.dbg.declare(metadata !33, metadata !689), !dbg !690
  store i8* %data, i8** %3, align 8
  call void @llvm.dbg.declare(metadata !33, metadata !691), !dbg !692
  br label %4, !dbg !693

; <label>:4                                       ; preds = %0
  call void @__divine_interrupt_mask(), !dbg !695
  call void @_Z11_initializev(), !dbg !695
  br label %5, !dbg !695

; <label>:5                                       ; preds = %4
  %6 = load %struct._PerThreadData** %2, align 8, !dbg !697
  %7 = icmp eq %struct._PerThreadData* %6, null, !dbg !697
  br i1 %7, label %8, label %9, !dbg !697

; <label>:8                                       ; preds = %5
  store i32 22, i32* %1, !dbg !698
  br label %22, !dbg !698

; <label>:9                                       ; preds = %5
  call void @llvm.dbg.declare(metadata !33, metadata !699), !dbg !700
  %10 = call i32 @__divine_get_tid(), !dbg !701
  store i32 %10, i32* %ltid, align 4, !dbg !701
  %11 = load i32* %ltid, align 4, !dbg !702
  %12 = load i32* @alloc_pslots, align 4, !dbg !702
  %13 = icmp ult i32 %11, %12, !dbg !702
  %14 = zext i1 %13 to i32, !dbg !702
  call void @__divine_assert(i32 %14), !dbg !702
  %15 = load i8** %3, align 8, !dbg !703
  %16 = load i32* %ltid, align 4, !dbg !703
  %17 = sext i32 %16 to i64, !dbg !703
  %18 = load %struct._PerThreadData** %2, align 8, !dbg !703
  %19 = getelementptr inbounds %struct._PerThreadData* %18, i32 0, i32 0, !dbg !703
  %20 = load i8*** %19, align 8, !dbg !703
  %21 = getelementptr inbounds i8** %20, i64 %17, !dbg !703
  store i8* %15, i8** %21, align 8, !dbg !703
  store i32 0, i32* %1, !dbg !704
  br label %22, !dbg !704

; <label>:22                                      ; preds = %9, %8
  %23 = load i32* %1, !dbg !705
  ret i32 %23, !dbg !705
}

define i32 @pthread_create(i32* %ptid, i32* %attr, i8* (i8*)* %entry, i8* %arg) uwtable noinline {
  %1 = alloca i32, align 4
  %2 = alloca i32*, align 8
  %3 = alloca i32*, align 8
  %4 = alloca i8* (i8*)*, align 8
  %5 = alloca i8*, align 8
  %args = alloca %struct.Entry*, align 8
  %ltid = alloca i32, align 4
  %gtid = alloca i32, align 4
  store i32* %ptid, i32** %2, align 8
  call void @llvm.dbg.declare(metadata !33, metadata !706), !dbg !707
  store i32* %attr, i32** %3, align 8
  call void @llvm.dbg.declare(metadata !33, metadata !708), !dbg !709
  store i8* (i8*)* %entry, i8* (i8*)** %4, align 8
  call void @llvm.dbg.declare(metadata !33, metadata !710), !dbg !711
  store i8* %arg, i8** %5, align 8
  call void @llvm.dbg.declare(metadata !33, metadata !712), !dbg !713
  br label %6, !dbg !714

; <label>:6                                       ; preds = %0
  call void @__divine_interrupt_mask(), !dbg !716
  br label %7, !dbg !716

; <label>:7                                       ; preds = %6
  call void @__divine_interrupt_unmask(), !dbg !718
  call void @__divine_interrupt(), !dbg !718
  call void @__divine_interrupt_mask(), !dbg !718
  br label %8, !dbg !718

; <label>:8                                       ; preds = %7
  call void @_Z11_initializev(), !dbg !718
  br label %9, !dbg !718

; <label>:9                                       ; preds = %8
  %10 = load i32* @alloc_pslots, align 4, !dbg !720
  %11 = icmp ugt i32 %10, 0, !dbg !720
  %12 = zext i1 %11 to i32, !dbg !720
  call void @__divine_assert(i32 %12), !dbg !720
  %13 = load i32** %2, align 8, !dbg !721
  %14 = icmp eq i32* %13, null, !dbg !721
  br i1 %14, label %18, label %15, !dbg !721

; <label>:15                                      ; preds = %9
  %16 = load i8* (i8*)** %4, align 8, !dbg !721
  %17 = icmp eq i8* (i8*)* %16, null, !dbg !721
  br i1 %17, label %18, label %19, !dbg !721

; <label>:18                                      ; preds = %15, %9
  store i32 22, i32* %1, !dbg !722
  br label %74, !dbg !722

; <label>:19                                      ; preds = %15
  call void @llvm.dbg.declare(metadata !33, metadata !723), !dbg !724
  %20 = call i8* @__divine_malloc(i64 24), !dbg !725
  %21 = bitcast i8* %20 to %struct.Entry*, !dbg !725
  store %struct.Entry* %21, %struct.Entry** %args, align 8, !dbg !725
  %22 = load i8* (i8*)** %4, align 8, !dbg !726
  %23 = load %struct.Entry** %args, align 8, !dbg !726
  %24 = getelementptr inbounds %struct.Entry* %23, i32 0, i32 0, !dbg !726
  store i8* (i8*)* %22, i8* (i8*)** %24, align 8, !dbg !726
  %25 = load i8** %5, align 8, !dbg !727
  %26 = load %struct.Entry** %args, align 8, !dbg !727
  %27 = getelementptr inbounds %struct.Entry* %26, i32 0, i32 1, !dbg !727
  store i8* %25, i8** %27, align 8, !dbg !727
  %28 = load %struct.Entry** %args, align 8, !dbg !728
  %29 = getelementptr inbounds %struct.Entry* %28, i32 0, i32 2, !dbg !728
  store i32 0, i32* %29, align 4, !dbg !728
  call void @llvm.dbg.declare(metadata !33, metadata !729), !dbg !730
  %30 = load %struct.Entry** %args, align 8, !dbg !731
  %31 = bitcast %struct.Entry* %30 to i8*, !dbg !731
  %32 = call i32 @__divine_new_thread(void (i8*)* @_Z14_pthread_entryPv, i8* %31), !dbg !731
  store i32 %32, i32* %ltid, align 4, !dbg !731
  %33 = load i32* %ltid, align 4, !dbg !732
  %34 = icmp sge i32 %33, 0, !dbg !732
  %35 = zext i1 %34 to i32, !dbg !732
  call void @__divine_assert(i32 %35), !dbg !732
  call void @llvm.dbg.declare(metadata !33, metadata !733), !dbg !734
  %36 = load i32* @thread_counter, align 4, !dbg !735
  %37 = add i32 %36, 1, !dbg !735
  store i32 %37, i32* @thread_counter, align 4, !dbg !735
  store i32 %36, i32* %gtid, align 4, !dbg !735
  %38 = load i32* @thread_counter, align 4, !dbg !736
  %39 = icmp ult i32 %38, 65536, !dbg !736
  %40 = zext i1 %39 to i32, !dbg !736
  call void @__divine_assert(i32 %40), !dbg !736
  %41 = load i32* %gtid, align 4, !dbg !737
  %42 = shl i32 %41, 16, !dbg !737
  %43 = load i32* %ltid, align 4, !dbg !737
  %44 = or i32 %42, %43, !dbg !737
  %45 = load i32** %2, align 8, !dbg !737
  store i32 %44, i32* %45, align 4, !dbg !737
  %46 = load i32* %gtid, align 4, !dbg !738
  %47 = load i32* %ltid, align 4, !dbg !738
  %48 = load i32** %3, align 8, !dbg !738
  %49 = icmp eq i32* %48, null, !dbg !738
  br i1 %49, label %50, label %51, !dbg !738

; <label>:50                                      ; preds = %19
  br label %54, !dbg !738

; <label>:51                                      ; preds = %19
  %52 = load i32** %3, align 8, !dbg !738
  %53 = load i32* %52, align 4, !dbg !738
  br label %54, !dbg !738

; <label>:54                                      ; preds = %51, %50
  %55 = phi i32 [ 0, %50 ], [ %53, %51 ], !dbg !738
  call void @_Z12_init_threadiii(i32 %46, i32 %47, i32 %55), !dbg !738
  %56 = load i32* %ltid, align 4, !dbg !739
  %57 = load i32* @alloc_pslots, align 4, !dbg !739
  %58 = icmp ult i32 %56, %57, !dbg !739
  %59 = zext i1 %58 to i32, !dbg !739
  call void @__divine_assert(i32 %59), !dbg !739
  br label %60, !dbg !740

; <label>:60                                      ; preds = %54
  br label %61, !dbg !741

; <label>:61                                      ; preds = %69, %60
  %62 = load %struct.Entry** %args, align 8, !dbg !741
  %63 = getelementptr inbounds %struct.Entry* %62, i32 0, i32 2, !dbg !741
  %64 = load i32* %63, align 4, !dbg !741
  %65 = icmp ne i32 %64, 0, !dbg !741
  br i1 %65, label %67, label %66, !dbg !741

; <label>:66                                      ; preds = %61
  br label %67

; <label>:67                                      ; preds = %66, %61
  %68 = phi i1 [ false, %61 ], [ true, %66 ]
  br i1 %68, label %69, label %70

; <label>:69                                      ; preds = %67
  call void @__divine_interrupt_unmask(), !dbg !743
  call void @__divine_interrupt_mask(), !dbg !743
  br label %61, !dbg !743

; <label>:70                                      ; preds = %67
  br label %71, !dbg !743

; <label>:71                                      ; preds = %70
  %72 = load %struct.Entry** %args, align 8, !dbg !745
  %73 = bitcast %struct.Entry* %72 to i8*, !dbg !745
  call void @__divine_free(i8* %73), !dbg !745
  store i32 0, i32* %1, !dbg !746
  br label %74, !dbg !746

; <label>:74                                      ; preds = %71, %18
  %75 = load i32* %1, !dbg !747
  ret i32 %75, !dbg !747
}

declare void @__divine_interrupt()

declare i32 @__divine_new_thread(void (i8*)*, i8*)

define void @pthread_exit(i8* %result) uwtable noinline {
  %1 = alloca i8*, align 8
  %ltid = alloca i32, align 4
  %gtid = alloca i32, align 4
  %i = alloca i32, align 4
  store i8* %result, i8** %1, align 8
  call void @llvm.dbg.declare(metadata !33, metadata !748), !dbg !749
  br label %2, !dbg !750

; <label>:2                                       ; preds = %0
  call void @__divine_interrupt_mask(), !dbg !752
  br label %3, !dbg !752

; <label>:3                                       ; preds = %2
  call void @__divine_interrupt_unmask(), !dbg !754
  call void @__divine_interrupt(), !dbg !754
  call void @__divine_interrupt_mask(), !dbg !754
  br label %4, !dbg !754

; <label>:4                                       ; preds = %3
  call void @_Z11_initializev(), !dbg !754
  br label %5, !dbg !754

; <label>:5                                       ; preds = %4
  call void @llvm.dbg.declare(metadata !33, metadata !756), !dbg !757
  %6 = call i32 @__divine_get_tid(), !dbg !758
  store i32 %6, i32* %ltid, align 4, !dbg !758
  call void @llvm.dbg.declare(metadata !33, metadata !759), !dbg !760
  %7 = load i32* %ltid, align 4, !dbg !761
  %8 = call i32 @_Z9_get_gtidi(i32 %7), !dbg !761
  store i32 %8, i32* %gtid, align 4, !dbg !761
  %9 = load i8** %1, align 8, !dbg !762
  %10 = load i32* %ltid, align 4, !dbg !762
  %11 = sext i32 %10 to i64, !dbg !762
  %12 = load %struct.Thread*** @threads, align 8, !dbg !762
  %13 = getelementptr inbounds %struct.Thread** %12, i64 %11, !dbg !762
  %14 = load %struct.Thread** %13, align 8, !dbg !762
  %15 = getelementptr inbounds %struct.Thread* %14, i32 0, i32 3, !dbg !762
  store i8* %9, i8** %15, align 8, !dbg !762
  %16 = load i32* %gtid, align 4, !dbg !763
  %17 = icmp eq i32 %16, 0, !dbg !763
  br i1 %17, label %18, label %58, !dbg !763

; <label>:18                                      ; preds = %5
  call void @llvm.dbg.declare(metadata !33, metadata !764), !dbg !767
  store i32 1, i32* %i, align 4, !dbg !768
  br label %19, !dbg !768

; <label>:19                                      ; preds = %54, %18
  %20 = load i32* %i, align 4, !dbg !768
  %21 = load i32* @alloc_pslots, align 4, !dbg !768
  %22 = icmp ult i32 %20, %21, !dbg !768
  br i1 %22, label %23, label %57, !dbg !768

; <label>:23                                      ; preds = %19
  br label %24, !dbg !769

; <label>:24                                      ; preds = %23
  br label %25, !dbg !771

; <label>:25                                      ; preds = %47, %24
  %26 = load i32* %i, align 4, !dbg !771
  %27 = sext i32 %26 to i64, !dbg !771
  %28 = load %struct.Thread*** @threads, align 8, !dbg !771
  %29 = getelementptr inbounds %struct.Thread** %28, i64 %27, !dbg !771
  %30 = load %struct.Thread** %29, align 8, !dbg !771
  %31 = icmp ne %struct.Thread* %30, null, !dbg !771
  br i1 %31, label %32, label %45, !dbg !771

; <label>:32                                      ; preds = %25
  %33 = load i32* %i, align 4, !dbg !771
  %34 = sext i32 %33 to i64, !dbg !771
  %35 = load %struct.Thread*** @threads, align 8, !dbg !771
  %36 = getelementptr inbounds %struct.Thread** %35, i64 %34, !dbg !771
  %37 = load %struct.Thread** %36, align 8, !dbg !771
  %38 = getelementptr inbounds %struct.Thread* %37, i32 0, i32 1, !dbg !771
  %39 = load i32* %38, align 4, !dbg !771
  %40 = icmp ne i32 %39, 0, !dbg !771
  br i1 %40, label %41, label %45, !dbg !771

; <label>:41                                      ; preds = %32
  %42 = call i32 @_Z9_canceledv(), !dbg !771
  %43 = icmp ne i32 %42, 0, !dbg !771
  %44 = xor i1 %43, true, !dbg !771
  br label %45

; <label>:45                                      ; preds = %41, %32, %25
  %46 = phi i1 [ false, %32 ], [ false, %25 ], [ %44, %41 ]
  br i1 %46, label %47, label %48

; <label>:47                                      ; preds = %45
  call void @__divine_interrupt_unmask(), !dbg !773
  call void @__divine_interrupt_mask(), !dbg !773
  br label %25, !dbg !773

; <label>:48                                      ; preds = %45
  %49 = call i32 @_Z9_canceledv(), !dbg !773
  %50 = icmp ne i32 %49, 0, !dbg !773
  br i1 %50, label %51, label %52, !dbg !773

; <label>:51                                      ; preds = %48
  call void @_Z7_cancelv(), !dbg !773
  br label %52, !dbg !773

; <label>:52                                      ; preds = %51, %48
  br label %53, !dbg !773

; <label>:53                                      ; preds = %52
  br label %54, !dbg !775

; <label>:54                                      ; preds = %53
  %55 = load i32* %i, align 4, !dbg !776
  %56 = add nsw i32 %55, 1, !dbg !776
  store i32 %56, i32* %i, align 4, !dbg !776
  br label %19, !dbg !776

; <label>:57                                      ; preds = %19
  call void @_Z8_cleanupv(), !dbg !777
  br label %59, !dbg !778

; <label>:58                                      ; preds = %5
  call void @_Z8_cleanupv(), !dbg !779
  br label %59

; <label>:59                                      ; preds = %58, %57
  ret void, !dbg !781
}

define i32 @pthread_join(i32 %ptid, i8** %result) uwtable noinline {
  %1 = alloca i32, align 4
  %2 = alloca i32, align 4
  %3 = alloca i8**, align 8
  %ltid = alloca i32, align 4
  %gtid = alloca i32, align 4
  store i32 %ptid, i32* %2, align 4
  call void @llvm.dbg.declare(metadata !33, metadata !782), !dbg !783
  store i8** %result, i8*** %3, align 8
  call void @llvm.dbg.declare(metadata !33, metadata !784), !dbg !785
  br label %4, !dbg !786

; <label>:4                                       ; preds = %0
  call void @__divine_interrupt_mask(), !dbg !788
  br label %5, !dbg !788

; <label>:5                                       ; preds = %4
  call void @__divine_interrupt_unmask(), !dbg !790
  call void @__divine_interrupt(), !dbg !790
  call void @__divine_interrupt_mask(), !dbg !790
  br label %6, !dbg !790

; <label>:6                                       ; preds = %5
  call void @_Z11_initializev(), !dbg !790
  br label %7, !dbg !790

; <label>:7                                       ; preds = %6
  call void @llvm.dbg.declare(metadata !33, metadata !792), !dbg !793
  %8 = load i32* %2, align 4, !dbg !794
  %9 = and i32 %8, 65535, !dbg !794
  store i32 %9, i32* %ltid, align 4, !dbg !794
  call void @llvm.dbg.declare(metadata !33, metadata !795), !dbg !796
  %10 = load i32* %2, align 4, !dbg !797
  %11 = ashr i32 %10, 16, !dbg !797
  store i32 %11, i32* %gtid, align 4, !dbg !797
  %12 = load i32* %ltid, align 4, !dbg !798
  %13 = icmp slt i32 %12, 0, !dbg !798
  br i1 %13, label %25, label %14, !dbg !798

; <label>:14                                      ; preds = %7
  %15 = load i32* %ltid, align 4, !dbg !798
  %16 = load i32* @alloc_pslots, align 4, !dbg !798
  %17 = icmp uge i32 %15, %16, !dbg !798
  br i1 %17, label %25, label %18, !dbg !798

; <label>:18                                      ; preds = %14
  %19 = load i32* %gtid, align 4, !dbg !798
  %20 = icmp slt i32 %19, 0, !dbg !798
  br i1 %20, label %25, label %21, !dbg !798

; <label>:21                                      ; preds = %18
  %22 = load i32* %gtid, align 4, !dbg !798
  %23 = load i32* @thread_counter, align 4, !dbg !798
  %24 = icmp uge i32 %22, %23, !dbg !798
  br i1 %24, label %25, label %26, !dbg !798

; <label>:25                                      ; preds = %21, %18, %14, %7
  store i32 22, i32* %1, !dbg !799
  br label %117, !dbg !799

; <label>:26                                      ; preds = %21
  %27 = load i32* %gtid, align 4, !dbg !800
  %28 = load i32* %ltid, align 4, !dbg !801
  %29 = call i32 @_Z9_get_gtidi(i32 %28), !dbg !801
  %30 = icmp ne i32 %27, %29, !dbg !801
  br i1 %30, label %31, label %32, !dbg !801

; <label>:31                                      ; preds = %26
  store i32 3, i32* %1, !dbg !802
  br label %117, !dbg !802

; <label>:32                                      ; preds = %26
  %33 = load i32* %gtid, align 4, !dbg !803
  %34 = call i32 @__divine_get_tid(), !dbg !804
  %35 = call i32 @_Z9_get_gtidi(i32 %34), !dbg !804
  %36 = icmp eq i32 %33, %35, !dbg !804
  br i1 %36, label %37, label %38, !dbg !804

; <label>:37                                      ; preds = %32
  store i32 35, i32* %1, !dbg !805
  br label %117, !dbg !805

; <label>:38                                      ; preds = %32
  %39 = load i32* %ltid, align 4, !dbg !806
  %40 = sext i32 %39 to i64, !dbg !806
  %41 = load %struct.Thread*** @threads, align 8, !dbg !806
  %42 = getelementptr inbounds %struct.Thread** %41, i64 %40, !dbg !806
  %43 = load %struct.Thread** %42, align 8, !dbg !806
  %44 = getelementptr inbounds %struct.Thread* %43, i32 0, i32 2, !dbg !806
  %45 = load i32* %44, align 4, !dbg !806
  %46 = icmp ne i32 %45, 0, !dbg !806
  br i1 %46, label %47, label %48, !dbg !806

; <label>:47                                      ; preds = %38
  store i32 22, i32* %1, !dbg !807
  br label %117, !dbg !807

; <label>:48                                      ; preds = %38
  br label %49, !dbg !808

; <label>:49                                      ; preds = %48
  br label %50, !dbg !809

; <label>:50                                      ; preds = %65, %49
  %51 = load i32* %ltid, align 4, !dbg !809
  %52 = sext i32 %51 to i64, !dbg !809
  %53 = load %struct.Thread*** @threads, align 8, !dbg !809
  %54 = getelementptr inbounds %struct.Thread** %53, i64 %52, !dbg !809
  %55 = load %struct.Thread** %54, align 8, !dbg !809
  %56 = getelementptr inbounds %struct.Thread* %55, i32 0, i32 1, !dbg !809
  %57 = load i32* %56, align 4, !dbg !809
  %58 = icmp ne i32 %57, 0, !dbg !809
  br i1 %58, label %59, label %63, !dbg !809

; <label>:59                                      ; preds = %50
  %60 = call i32 @_Z9_canceledv(), !dbg !809
  %61 = icmp ne i32 %60, 0, !dbg !809
  %62 = xor i1 %61, true, !dbg !809
  br label %63

; <label>:63                                      ; preds = %59, %50
  %64 = phi i1 [ false, %50 ], [ %62, %59 ]
  br i1 %64, label %65, label %66

; <label>:65                                      ; preds = %63
  call void @__divine_interrupt_unmask(), !dbg !811
  call void @__divine_interrupt_mask(), !dbg !811
  br label %50, !dbg !811

; <label>:66                                      ; preds = %63
  %67 = call i32 @_Z9_canceledv(), !dbg !811
  %68 = icmp ne i32 %67, 0, !dbg !811
  br i1 %68, label %69, label %70, !dbg !811

; <label>:69                                      ; preds = %66
  call void @_Z7_cancelv(), !dbg !811
  br label %70, !dbg !811

; <label>:70                                      ; preds = %69, %66
  br label %71, !dbg !811

; <label>:71                                      ; preds = %70
  %72 = load i32* %gtid, align 4, !dbg !813
  %73 = load i32* %ltid, align 4, !dbg !814
  %74 = call i32 @_Z9_get_gtidi(i32 %73), !dbg !814
  %75 = icmp ne i32 %72, %74, !dbg !814
  br i1 %75, label %85, label %76, !dbg !814

; <label>:76                                      ; preds = %71
  %77 = load i32* %ltid, align 4, !dbg !814
  %78 = sext i32 %77 to i64, !dbg !814
  %79 = load %struct.Thread*** @threads, align 8, !dbg !814
  %80 = getelementptr inbounds %struct.Thread** %79, i64 %78, !dbg !814
  %81 = load %struct.Thread** %80, align 8, !dbg !814
  %82 = getelementptr inbounds %struct.Thread* %81, i32 0, i32 2, !dbg !814
  %83 = load i32* %82, align 4, !dbg !814
  %84 = icmp ne i32 %83, 0, !dbg !814
  br i1 %84, label %85, label %86, !dbg !814

; <label>:85                                      ; preds = %76, %71
  store i32 22, i32* %1, !dbg !815
  br label %117, !dbg !815

; <label>:86                                      ; preds = %76
  %87 = load i8*** %3, align 8, !dbg !817
  %88 = icmp ne i8** %87, null, !dbg !817
  br i1 %88, label %89, label %110, !dbg !817

; <label>:89                                      ; preds = %86
  %90 = load i32* %ltid, align 4, !dbg !818
  %91 = sext i32 %90 to i64, !dbg !818
  %92 = load %struct.Thread*** @threads, align 8, !dbg !818
  %93 = getelementptr inbounds %struct.Thread** %92, i64 %91, !dbg !818
  %94 = load %struct.Thread** %93, align 8, !dbg !818
  %95 = getelementptr inbounds %struct.Thread* %94, i32 0, i32 9, !dbg !818
  %96 = load i32* %95, align 4, !dbg !818
  %97 = icmp ne i32 %96, 0, !dbg !818
  br i1 %97, label %98, label %100, !dbg !818

; <label>:98                                      ; preds = %89
  %99 = load i8*** %3, align 8, !dbg !820
  store i8* inttoptr (i64 -1 to i8*), i8** %99, align 8, !dbg !820
  br label %109, !dbg !820

; <label>:100                                     ; preds = %89
  %101 = load i32* %ltid, align 4, !dbg !821
  %102 = sext i32 %101 to i64, !dbg !821
  %103 = load %struct.Thread*** @threads, align 8, !dbg !821
  %104 = getelementptr inbounds %struct.Thread** %103, i64 %102, !dbg !821
  %105 = load %struct.Thread** %104, align 8, !dbg !821
  %106 = getelementptr inbounds %struct.Thread* %105, i32 0, i32 3, !dbg !821
  %107 = load i8** %106, align 8, !dbg !821
  %108 = load i8*** %3, align 8, !dbg !821
  store i8* %107, i8** %108, align 8, !dbg !821
  br label %109

; <label>:109                                     ; preds = %100, %98
  br label %110, !dbg !822

; <label>:110                                     ; preds = %109, %86
  %111 = load i32* %ltid, align 4, !dbg !823
  %112 = sext i32 %111 to i64, !dbg !823
  %113 = load %struct.Thread*** @threads, align 8, !dbg !823
  %114 = getelementptr inbounds %struct.Thread** %113, i64 %112, !dbg !823
  %115 = load %struct.Thread** %114, align 8, !dbg !823
  %116 = getelementptr inbounds %struct.Thread* %115, i32 0, i32 2, !dbg !823
  store i32 1, i32* %116, align 4, !dbg !823
  store i32 0, i32* %1, !dbg !824
  br label %117, !dbg !824

; <label>:117                                     ; preds = %110, %85, %47, %37, %31, %25
  %118 = load i32* %1, !dbg !825
  ret i32 %118, !dbg !825
}

define i32 @pthread_detach(i32 %ptid) uwtable noinline {
  %1 = alloca i32, align 4
  %2 = alloca i32, align 4
  %ltid = alloca i32, align 4
  %gtid = alloca i32, align 4
  store i32 %ptid, i32* %2, align 4
  call void @llvm.dbg.declare(metadata !33, metadata !826), !dbg !827
  br label %3, !dbg !828

; <label>:3                                       ; preds = %0
  call void @__divine_interrupt_mask(), !dbg !830
  br label %4, !dbg !830

; <label>:4                                       ; preds = %3
  call void @__divine_interrupt_unmask(), !dbg !832
  call void @__divine_interrupt(), !dbg !832
  call void @__divine_interrupt_mask(), !dbg !832
  br label %5, !dbg !832

; <label>:5                                       ; preds = %4
  call void @_Z11_initializev(), !dbg !832
  br label %6, !dbg !832

; <label>:6                                       ; preds = %5
  call void @llvm.dbg.declare(metadata !33, metadata !834), !dbg !835
  %7 = load i32* %2, align 4, !dbg !836
  %8 = and i32 %7, 65535, !dbg !836
  store i32 %8, i32* %ltid, align 4, !dbg !836
  call void @llvm.dbg.declare(metadata !33, metadata !837), !dbg !838
  %9 = load i32* %2, align 4, !dbg !839
  %10 = ashr i32 %9, 16, !dbg !839
  store i32 %10, i32* %gtid, align 4, !dbg !839
  %11 = load i32* %ltid, align 4, !dbg !840
  %12 = icmp slt i32 %11, 0, !dbg !840
  br i1 %12, label %24, label %13, !dbg !840

; <label>:13                                      ; preds = %6
  %14 = load i32* %ltid, align 4, !dbg !840
  %15 = load i32* @alloc_pslots, align 4, !dbg !840
  %16 = icmp uge i32 %14, %15, !dbg !840
  br i1 %16, label %24, label %17, !dbg !840

; <label>:17                                      ; preds = %13
  %18 = load i32* %gtid, align 4, !dbg !840
  %19 = icmp slt i32 %18, 0, !dbg !840
  br i1 %19, label %24, label %20, !dbg !840

; <label>:20                                      ; preds = %17
  %21 = load i32* %gtid, align 4, !dbg !840
  %22 = load i32* @thread_counter, align 4, !dbg !840
  %23 = icmp uge i32 %21, %22, !dbg !840
  br i1 %23, label %24, label %25, !dbg !840

; <label>:24                                      ; preds = %20, %17, %13, %6
  store i32 22, i32* %1, !dbg !841
  br label %48, !dbg !841

; <label>:25                                      ; preds = %20
  %26 = load i32* %gtid, align 4, !dbg !842
  %27 = load i32* %ltid, align 4, !dbg !843
  %28 = call i32 @_Z9_get_gtidi(i32 %27), !dbg !843
  %29 = icmp ne i32 %26, %28, !dbg !843
  br i1 %29, label %30, label %31, !dbg !843

; <label>:30                                      ; preds = %25
  store i32 3, i32* %1, !dbg !844
  br label %48, !dbg !844

; <label>:31                                      ; preds = %25
  %32 = load i32* %ltid, align 4, !dbg !845
  %33 = sext i32 %32 to i64, !dbg !845
  %34 = load %struct.Thread*** @threads, align 8, !dbg !845
  %35 = getelementptr inbounds %struct.Thread** %34, i64 %33, !dbg !845
  %36 = load %struct.Thread** %35, align 8, !dbg !845
  %37 = getelementptr inbounds %struct.Thread* %36, i32 0, i32 2, !dbg !845
  %38 = load i32* %37, align 4, !dbg !845
  %39 = icmp ne i32 %38, 0, !dbg !845
  br i1 %39, label %40, label %41, !dbg !845

; <label>:40                                      ; preds = %31
  store i32 22, i32* %1, !dbg !846
  br label %48, !dbg !846

; <label>:41                                      ; preds = %31
  %42 = load i32* %ltid, align 4, !dbg !847
  %43 = sext i32 %42 to i64, !dbg !847
  %44 = load %struct.Thread*** @threads, align 8, !dbg !847
  %45 = getelementptr inbounds %struct.Thread** %44, i64 %43, !dbg !847
  %46 = load %struct.Thread** %45, align 8, !dbg !847
  %47 = getelementptr inbounds %struct.Thread* %46, i32 0, i32 2, !dbg !847
  store i32 1, i32* %47, align 4, !dbg !847
  store i32 0, i32* %1, !dbg !848
  br label %48, !dbg !848

; <label>:48                                      ; preds = %41, %40, %30, %24
  %49 = load i32* %1, !dbg !849
  ret i32 %49, !dbg !849
}

define i32 @pthread_attr_destroy(i32*) uwtable noinline {
  %2 = alloca i32*, align 8
  store i32* %0, i32** %2, align 8
  br label %3, !dbg !850

; <label>:3                                       ; preds = %1
  call void @__divine_interrupt_mask(), !dbg !852
  call void @_Z11_initializev(), !dbg !852
  br label %4, !dbg !852

; <label>:4                                       ; preds = %3
  ret i32 0, !dbg !854
}

define i32 @pthread_attr_init(i32* %attr) uwtable noinline {
  %1 = alloca i32*, align 8
  store i32* %attr, i32** %1, align 8
  call void @llvm.dbg.declare(metadata !33, metadata !855), !dbg !856
  br label %2, !dbg !857

; <label>:2                                       ; preds = %0
  call void @__divine_interrupt_mask(), !dbg !859
  br label %3, !dbg !859

; <label>:3                                       ; preds = %2
  call void @__divine_interrupt_unmask(), !dbg !861
  call void @__divine_interrupt(), !dbg !861
  call void @__divine_interrupt_mask(), !dbg !861
  br label %4, !dbg !861

; <label>:4                                       ; preds = %3
  call void @_Z11_initializev(), !dbg !861
  br label %5, !dbg !861

; <label>:5                                       ; preds = %4
  %6 = load i32** %1, align 8, !dbg !863
  store i32 0, i32* %6, align 4, !dbg !863
  ret i32 0, !dbg !864
}

define i32 @pthread_attr_getdetachstate(i32* %attr, i32* %state) uwtable noinline {
  %1 = alloca i32, align 4
  %2 = alloca i32*, align 8
  %3 = alloca i32*, align 8
  store i32* %attr, i32** %2, align 8
  call void @llvm.dbg.declare(metadata !33, metadata !865), !dbg !866
  store i32* %state, i32** %3, align 8
  call void @llvm.dbg.declare(metadata !33, metadata !867), !dbg !868
  br label %4, !dbg !869

; <label>:4                                       ; preds = %0
  call void @__divine_interrupt_mask(), !dbg !871
  br label %5, !dbg !871

; <label>:5                                       ; preds = %4
  call void @__divine_interrupt_unmask(), !dbg !873
  call void @__divine_interrupt(), !dbg !873
  call void @__divine_interrupt_mask(), !dbg !873
  br label %6, !dbg !873

; <label>:6                                       ; preds = %5
  call void @_Z11_initializev(), !dbg !873
  br label %7, !dbg !873

; <label>:7                                       ; preds = %6
  %8 = load i32** %2, align 8, !dbg !875
  %9 = icmp eq i32* %8, null, !dbg !875
  br i1 %9, label %13, label %10, !dbg !875

; <label>:10                                      ; preds = %7
  %11 = load i32** %3, align 8, !dbg !875
  %12 = icmp eq i32* %11, null, !dbg !875
  br i1 %12, label %13, label %14, !dbg !875

; <label>:13                                      ; preds = %10, %7
  store i32 22, i32* %1, !dbg !876
  br label %19, !dbg !876

; <label>:14                                      ; preds = %10
  %15 = load i32** %2, align 8, !dbg !877
  %16 = load i32* %15, align 4, !dbg !877
  %17 = and i32 %16, 1, !dbg !877
  %18 = load i32** %3, align 8, !dbg !877
  store i32 %17, i32* %18, align 4, !dbg !877
  store i32 0, i32* %1, !dbg !878
  br label %19, !dbg !878

; <label>:19                                      ; preds = %14, %13
  %20 = load i32* %1, !dbg !879
  ret i32 %20, !dbg !879
}

define i32 @pthread_attr_getguardsize(i32*, i64*) nounwind uwtable noinline {
  %3 = alloca i32*, align 8
  %4 = alloca i64*, align 8
  store i32* %0, i32** %3, align 8
  store i64* %1, i64** %4, align 8
  ret i32 0, !dbg !880
}

define i32 @pthread_attr_getinheritsched(i32*, i32*) nounwind uwtable noinline {
  %3 = alloca i32*, align 8
  %4 = alloca i32*, align 8
  store i32* %0, i32** %3, align 8
  store i32* %1, i32** %4, align 8
  ret i32 0, !dbg !882
}

define i32 @pthread_attr_getschedparam(i32*, %struct.sched_param*) nounwind uwtable noinline {
  %3 = alloca i32*, align 8
  %4 = alloca %struct.sched_param*, align 8
  store i32* %0, i32** %3, align 8
  store %struct.sched_param* %1, %struct.sched_param** %4, align 8
  ret i32 0, !dbg !884
}

define i32 @pthread_attr_getschedpolicy(i32*, i32*) nounwind uwtable noinline {
  %3 = alloca i32*, align 8
  %4 = alloca i32*, align 8
  store i32* %0, i32** %3, align 8
  store i32* %1, i32** %4, align 8
  ret i32 0, !dbg !886
}

define i32 @pthread_attr_getscope(i32*, i32*) nounwind uwtable noinline {
  %3 = alloca i32*, align 8
  %4 = alloca i32*, align 8
  store i32* %0, i32** %3, align 8
  store i32* %1, i32** %4, align 8
  ret i32 0, !dbg !888
}

define i32 @pthread_attr_getstack(i32*, i8**, i64*) nounwind uwtable noinline {
  %4 = alloca i32*, align 8
  %5 = alloca i8**, align 8
  %6 = alloca i64*, align 8
  store i32* %0, i32** %4, align 8
  store i8** %1, i8*** %5, align 8
  store i64* %2, i64** %6, align 8
  ret i32 0, !dbg !890
}

define i32 @pthread_attr_getstackaddr(i32*, i8**) nounwind uwtable noinline {
  %3 = alloca i32*, align 8
  %4 = alloca i8**, align 8
  store i32* %0, i32** %3, align 8
  store i8** %1, i8*** %4, align 8
  ret i32 0, !dbg !892
}

define i32 @pthread_attr_getstacksize(i32*, i64*) nounwind uwtable noinline {
  %3 = alloca i32*, align 8
  %4 = alloca i64*, align 8
  store i32* %0, i32** %3, align 8
  store i64* %1, i64** %4, align 8
  ret i32 0, !dbg !894
}

define i32 @pthread_attr_setdetachstate(i32* %attr, i32 %state) uwtable noinline {
  %1 = alloca i32, align 4
  %2 = alloca i32*, align 8
  %3 = alloca i32, align 4
  store i32* %attr, i32** %2, align 8
  call void @llvm.dbg.declare(metadata !33, metadata !896), !dbg !897
  store i32 %state, i32* %3, align 4
  call void @llvm.dbg.declare(metadata !33, metadata !898), !dbg !899
  br label %4, !dbg !900

; <label>:4                                       ; preds = %0
  call void @__divine_interrupt_mask(), !dbg !902
  br label %5, !dbg !902

; <label>:5                                       ; preds = %4
  call void @__divine_interrupt_unmask(), !dbg !904
  call void @__divine_interrupt(), !dbg !904
  call void @__divine_interrupt_mask(), !dbg !904
  br label %6, !dbg !904

; <label>:6                                       ; preds = %5
  call void @_Z11_initializev(), !dbg !904
  br label %7, !dbg !904

; <label>:7                                       ; preds = %6
  %8 = load i32** %2, align 8, !dbg !906
  %9 = icmp eq i32* %8, null, !dbg !906
  br i1 %9, label %14, label %10, !dbg !906

; <label>:10                                      ; preds = %7
  %11 = load i32* %3, align 4, !dbg !906
  %12 = and i32 %11, -2, !dbg !906
  %13 = icmp ne i32 %12, 0, !dbg !906
  br i1 %13, label %14, label %15, !dbg !906

; <label>:14                                      ; preds = %10, %7
  store i32 22, i32* %1, !dbg !907
  br label %23, !dbg !907

; <label>:15                                      ; preds = %10
  %16 = load i32** %2, align 8, !dbg !908
  %17 = load i32* %16, align 4, !dbg !908
  %18 = and i32 %17, -2, !dbg !908
  store i32 %18, i32* %16, align 4, !dbg !908
  %19 = load i32* %3, align 4, !dbg !909
  %20 = load i32** %2, align 8, !dbg !909
  %21 = load i32* %20, align 4, !dbg !909
  %22 = or i32 %21, %19, !dbg !909
  store i32 %22, i32* %20, align 4, !dbg !909
  store i32 0, i32* %1, !dbg !910
  br label %23, !dbg !910

; <label>:23                                      ; preds = %15, %14
  %24 = load i32* %1, !dbg !911
  ret i32 %24, !dbg !911
}

define i32 @pthread_attr_setguardsize(i32*, i64) nounwind uwtable noinline {
  %3 = alloca i32*, align 8
  %4 = alloca i64, align 8
  store i32* %0, i32** %3, align 8
  store i64 %1, i64* %4, align 8
  ret i32 0, !dbg !912
}

define i32 @pthread_attr_setinheritsched(i32*, i32) nounwind uwtable noinline {
  %3 = alloca i32*, align 8
  %4 = alloca i32, align 4
  store i32* %0, i32** %3, align 8
  store i32 %1, i32* %4, align 4
  ret i32 0, !dbg !914
}

define i32 @pthread_attr_setschedparam(i32*, %struct.sched_param*) nounwind uwtable noinline {
  %3 = alloca i32*, align 8
  %4 = alloca %struct.sched_param*, align 8
  store i32* %0, i32** %3, align 8
  store %struct.sched_param* %1, %struct.sched_param** %4, align 8
  ret i32 0, !dbg !916
}

define i32 @pthread_attr_setschedpolicy(i32*, i32) nounwind uwtable noinline {
  %3 = alloca i32*, align 8
  %4 = alloca i32, align 4
  store i32* %0, i32** %3, align 8
  store i32 %1, i32* %4, align 4
  ret i32 0, !dbg !918
}

define i32 @pthread_attr_setscope(i32*, i32) nounwind uwtable noinline {
  %3 = alloca i32*, align 8
  %4 = alloca i32, align 4
  store i32* %0, i32** %3, align 8
  store i32 %1, i32* %4, align 4
  ret i32 0, !dbg !920
}

define i32 @pthread_attr_setstack(i32*, i8*, i64) nounwind uwtable noinline {
  %4 = alloca i32*, align 8
  %5 = alloca i8*, align 8
  %6 = alloca i64, align 8
  store i32* %0, i32** %4, align 8
  store i8* %1, i8** %5, align 8
  store i64 %2, i64* %6, align 8
  ret i32 0, !dbg !922
}

define i32 @pthread_attr_setstackaddr(i32*, i8*) nounwind uwtable noinline {
  %3 = alloca i32*, align 8
  %4 = alloca i8*, align 8
  store i32* %0, i32** %3, align 8
  store i8* %1, i8** %4, align 8
  ret i32 0, !dbg !924
}

define i32 @pthread_attr_setstacksize(i32*, i64) nounwind uwtable noinline {
  %3 = alloca i32*, align 8
  %4 = alloca i64, align 8
  store i32* %0, i32** %3, align 8
  store i64 %1, i64* %4, align 8
  ret i32 0, !dbg !926
}

define i32 @pthread_self() uwtable noinline {
  %ltid = alloca i32, align 4
  br label %1, !dbg !928

; <label>:1                                       ; preds = %0
  call void @__divine_interrupt_mask(), !dbg !930
  call void @_Z11_initializev(), !dbg !930
  br label %2, !dbg !930

; <label>:2                                       ; preds = %1
  call void @llvm.dbg.declare(metadata !33, metadata !932), !dbg !933
  %3 = call i32 @__divine_get_tid(), !dbg !934
  store i32 %3, i32* %ltid, align 4, !dbg !934
  %4 = load i32* %ltid, align 4, !dbg !935
  %5 = call i32 @_Z9_get_gtidi(i32 %4), !dbg !935
  %6 = shl i32 %5, 16, !dbg !935
  %7 = load i32* %ltid, align 4, !dbg !935
  %8 = or i32 %6, %7, !dbg !935
  ret i32 %8, !dbg !935
}

define i32 @pthread_equal(i32 %t1, i32 %t2) nounwind uwtable noinline {
  %1 = alloca i32, align 4
  %2 = alloca i32, align 4
  store i32 %t1, i32* %1, align 4
  call void @llvm.dbg.declare(metadata !33, metadata !936), !dbg !937
  store i32 %t2, i32* %2, align 4
  call void @llvm.dbg.declare(metadata !33, metadata !938), !dbg !939
  %3 = load i32* %1, align 4, !dbg !940
  %4 = ashr i32 %3, 16, !dbg !940
  %5 = load i32* %2, align 4, !dbg !940
  %6 = ashr i32 %5, 16, !dbg !940
  %7 = icmp eq i32 %4, %6, !dbg !940
  %8 = zext i1 %7 to i32, !dbg !940
  ret i32 %8, !dbg !940
}

define i32 @pthread_getconcurrency() nounwind uwtable noinline {
  ret i32 0, !dbg !942
}

define i32 @pthread_getcpuclockid(i32, i32*) nounwind uwtable noinline {
  %3 = alloca i32, align 4
  %4 = alloca i32*, align 8
  store i32 %0, i32* %3, align 4
  store i32* %1, i32** %4, align 8
  ret i32 0, !dbg !944
}

define i32 @pthread_getschedparam(i32, i32*, %struct.sched_param*) nounwind uwtable noinline {
  %4 = alloca i32, align 4
  %5 = alloca i32*, align 8
  %6 = alloca %struct.sched_param*, align 8
  store i32 %0, i32* %4, align 4
  store i32* %1, i32** %5, align 8
  store %struct.sched_param* %2, %struct.sched_param** %6, align 8
  ret i32 0, !dbg !946
}

define i32 @pthread_setconcurrency(i32) nounwind uwtable noinline {
  %2 = alloca i32, align 4
  store i32 %0, i32* %2, align 4
  ret i32 0, !dbg !948
}

define i32 @pthread_setschedparam(i32, i32, %struct.sched_param*) nounwind uwtable noinline {
  %4 = alloca i32, align 4
  %5 = alloca i32, align 4
  %6 = alloca %struct.sched_param*, align 8
  store i32 %0, i32* %4, align 4
  store i32 %1, i32* %5, align 4
  store %struct.sched_param* %2, %struct.sched_param** %6, align 8
  ret i32 0, !dbg !950
}

define i32 @pthread_setschedprio(i32, i32) nounwind uwtable noinline {
  %3 = alloca i32, align 4
  %4 = alloca i32, align 4
  store i32 %0, i32* %3, align 4
  store i32 %1, i32* %4, align 4
  ret i32 0, !dbg !952
}

define i32 @_Z19_mutex_adjust_countPii(i32* %mutex, i32 %adj) nounwind uwtable {
  %1 = alloca i32, align 4
  %2 = alloca i32*, align 8
  %3 = alloca i32, align 4
  %count = alloca i32, align 4
  store i32* %mutex, i32** %2, align 8
  call void @llvm.dbg.declare(metadata !33, metadata !954), !dbg !955
  store i32 %adj, i32* %3, align 4
  call void @llvm.dbg.declare(metadata !33, metadata !956), !dbg !957
  call void @llvm.dbg.declare(metadata !33, metadata !958), !dbg !960
  %4 = load i32** %2, align 8, !dbg !961
  %5 = load i32* %4, align 4, !dbg !961
  %6 = and i32 %5, 16711680, !dbg !961
  %7 = ashr i32 %6, 16, !dbg !961
  store i32 %7, i32* %count, align 4, !dbg !961
  %8 = load i32* %3, align 4, !dbg !962
  %9 = load i32* %count, align 4, !dbg !962
  %10 = add nsw i32 %9, %8, !dbg !962
  store i32 %10, i32* %count, align 4, !dbg !962
  %11 = load i32* %count, align 4, !dbg !963
  %12 = icmp sge i32 %11, 256, !dbg !963
  br i1 %12, label %13, label %14, !dbg !963

; <label>:13                                      ; preds = %0
  store i32 11, i32* %1, !dbg !964
  br label %23, !dbg !964

; <label>:14                                      ; preds = %0
  %15 = load i32** %2, align 8, !dbg !965
  %16 = load i32* %15, align 4, !dbg !965
  %17 = and i32 %16, -16711681, !dbg !965
  store i32 %17, i32* %15, align 4, !dbg !965
  %18 = load i32* %count, align 4, !dbg !966
  %19 = shl i32 %18, 16, !dbg !966
  %20 = load i32** %2, align 8, !dbg !966
  %21 = load i32* %20, align 4, !dbg !966
  %22 = or i32 %21, %19, !dbg !966
  store i32 %22, i32* %20, align 4, !dbg !966
  store i32 0, i32* %1, !dbg !967
  br label %23, !dbg !967

; <label>:23                                      ; preds = %14, %13
  %24 = load i32* %1, !dbg !968
  ret i32 %24, !dbg !968
}

define i32 @_Z15_mutex_can_lockPii(i32* %mutex, i32 %gtid) nounwind uwtable {
  %1 = alloca i32*, align 8
  %2 = alloca i32, align 4
  store i32* %mutex, i32** %1, align 8
  call void @llvm.dbg.declare(metadata !33, metadata !969), !dbg !970
  store i32 %gtid, i32* %2, align 4
  call void @llvm.dbg.declare(metadata !33, metadata !971), !dbg !972
  %3 = load i32** %1, align 8, !dbg !973
  %4 = load i32* %3, align 4, !dbg !973
  %5 = and i32 %4, 65535, !dbg !973
  %6 = icmp ne i32 %5, 0, !dbg !973
  br i1 %6, label %7, label %14, !dbg !973

; <label>:7                                       ; preds = %0
  %8 = load i32** %1, align 8, !dbg !973
  %9 = load i32* %8, align 4, !dbg !973
  %10 = and i32 %9, 65535, !dbg !973
  %11 = load i32* %2, align 4, !dbg !973
  %12 = add nsw i32 %11, 1, !dbg !973
  %13 = icmp eq i32 %10, %12, !dbg !973
  br label %14, !dbg !973

; <label>:14                                      ; preds = %7, %0
  %15 = phi i1 [ true, %0 ], [ %13, %7 ]
  %16 = zext i1 %15 to i32, !dbg !973
  ret i32 %16, !dbg !973
}

define i32 @_Z11_mutex_lockPii(i32* %mutex, i32 %wait) uwtable {
  %1 = alloca i32, align 4
  %2 = alloca i32*, align 8
  %3 = alloca i32, align 4
  %gtid = alloca i32, align 4
  %err = alloca i32, align 4
  store i32* %mutex, i32** %2, align 8
  call void @llvm.dbg.declare(metadata !33, metadata !975), !dbg !976
  store i32 %wait, i32* %3, align 4
  call void @llvm.dbg.declare(metadata !33, metadata !977), !dbg !978
  call void @llvm.dbg.declare(metadata !33, metadata !979), !dbg !981
  %4 = call i32 @__divine_get_tid(), !dbg !982
  %5 = call i32 @_Z9_get_gtidi(i32 %4), !dbg !982
  store i32 %5, i32* %gtid, align 4, !dbg !982
  %6 = load i32** %2, align 8, !dbg !983
  %7 = icmp eq i32* %6, null, !dbg !983
  br i1 %7, label %13, label %8, !dbg !983

; <label>:8                                       ; preds = %0
  %9 = load i32** %2, align 8, !dbg !983
  %10 = load i32* %9, align 4, !dbg !983
  %11 = and i32 %10, 67108864, !dbg !983
  %12 = icmp ne i32 %11, 0, !dbg !983
  br i1 %12, label %14, label %13, !dbg !983

; <label>:13                                      ; preds = %8, %0
  store i32 22, i32* %1, !dbg !984
  br label %79, !dbg !984

; <label>:14                                      ; preds = %8
  %15 = load i32** %2, align 8, !dbg !986
  %16 = load i32* %15, align 4, !dbg !986
  %17 = and i32 %16, 65535, !dbg !986
  %18 = load i32* %gtid, align 4, !dbg !986
  %19 = add nsw i32 %18, 1, !dbg !986
  %20 = icmp eq i32 %17, %19, !dbg !986
  br i1 %20, label %21, label %38, !dbg !986

; <label>:21                                      ; preds = %14
  %22 = load i32** %2, align 8, !dbg !987
  %23 = load i32* %22, align 4, !dbg !987
  %24 = and i32 %23, 16711680, !dbg !987
  call void @__divine_assert(i32 %24), !dbg !987
  %25 = load i32** %2, align 8, !dbg !989
  %26 = load i32* %25, align 4, !dbg !989
  %27 = and i32 %26, 50331648, !dbg !989
  %28 = icmp ne i32 %27, 16777216, !dbg !989
  br i1 %28, label %29, label %37, !dbg !989

; <label>:29                                      ; preds = %21
  %30 = load i32** %2, align 8, !dbg !990
  %31 = load i32* %30, align 4, !dbg !990
  %32 = and i32 %31, 50331648, !dbg !990
  %33 = icmp eq i32 %32, 33554432, !dbg !990
  br i1 %33, label %34, label %35, !dbg !990

; <label>:34                                      ; preds = %29
  store i32 35, i32* %1, !dbg !992
  br label %79, !dbg !992

; <label>:35                                      ; preds = %29
  call void @__divine_assert(i32 0), !dbg !993
  br label %36

; <label>:36                                      ; preds = %35
  br label %37, !dbg !994

; <label>:37                                      ; preds = %36, %21
  br label %38, !dbg !995

; <label>:38                                      ; preds = %37, %14
  %39 = load i32** %2, align 8, !dbg !996
  %40 = load i32* %gtid, align 4, !dbg !996
  %41 = call i32 @_Z15_mutex_can_lockPii(i32* %39, i32 %40), !dbg !996
  %42 = icmp ne i32 %41, 0, !dbg !996
  br i1 %42, label %51, label %43, !dbg !996

; <label>:43                                      ; preds = %38
  %44 = load i32** %2, align 8, !dbg !997
  %45 = load i32* %44, align 4, !dbg !997
  %46 = and i32 %45, 16711680, !dbg !997
  call void @__divine_assert(i32 %46), !dbg !997
  %47 = load i32* %3, align 4, !dbg !999
  %48 = icmp ne i32 %47, 0, !dbg !999
  br i1 %48, label %50, label %49, !dbg !999

; <label>:49                                      ; preds = %43
  store i32 16, i32* %1, !dbg !1000
  br label %79, !dbg !1000

; <label>:50                                      ; preds = %43
  br label %51, !dbg !1001

; <label>:51                                      ; preds = %50, %38
  br label %52, !dbg !1002

; <label>:52                                      ; preds = %51
  br label %53, !dbg !1003

; <label>:53                                      ; preds = %61, %52
  %54 = load i32** %2, align 8, !dbg !1003
  %55 = load i32* %gtid, align 4, !dbg !1003
  %56 = call i32 @_Z15_mutex_can_lockPii(i32* %54, i32 %55), !dbg !1003
  %57 = icmp ne i32 %56, 0, !dbg !1003
  br i1 %57, label %59, label %58, !dbg !1003

; <label>:58                                      ; preds = %53
  br label %59

; <label>:59                                      ; preds = %58, %53
  %60 = phi i1 [ false, %53 ], [ true, %58 ]
  br i1 %60, label %61, label %62

; <label>:61                                      ; preds = %59
  call void @__divine_interrupt_unmask(), !dbg !1005
  call void @__divine_interrupt_mask(), !dbg !1005
  br label %53, !dbg !1005

; <label>:62                                      ; preds = %59
  br label %63, !dbg !1005

; <label>:63                                      ; preds = %62
  call void @llvm.dbg.declare(metadata !33, metadata !1007), !dbg !1008
  %64 = load i32** %2, align 8, !dbg !1009
  %65 = call i32 @_Z19_mutex_adjust_countPii(i32* %64, i32 1), !dbg !1009
  store i32 %65, i32* %err, align 4, !dbg !1009
  %66 = load i32* %err, align 4, !dbg !1010
  %67 = icmp ne i32 %66, 0, !dbg !1010
  br i1 %67, label %68, label %70, !dbg !1010

; <label>:68                                      ; preds = %63
  %69 = load i32* %err, align 4, !dbg !1011
  store i32 %69, i32* %1, !dbg !1011
  br label %79, !dbg !1011

; <label>:70                                      ; preds = %63
  %71 = load i32** %2, align 8, !dbg !1012
  %72 = load i32* %71, align 4, !dbg !1012
  %73 = and i32 %72, -65536, !dbg !1012
  store i32 %73, i32* %71, align 4, !dbg !1012
  %74 = load i32* %gtid, align 4, !dbg !1013
  %75 = add nsw i32 %74, 1, !dbg !1013
  %76 = load i32** %2, align 8, !dbg !1013
  %77 = load i32* %76, align 4, !dbg !1013
  %78 = or i32 %77, %75, !dbg !1013
  store i32 %78, i32* %76, align 4, !dbg !1013
  store i32 0, i32* %1, !dbg !1014
  br label %79, !dbg !1014

; <label>:79                                      ; preds = %70, %68, %49, %34, %13
  %80 = load i32* %1, !dbg !1015
  ret i32 %80, !dbg !1015
}

define i32 @pthread_mutex_destroy(i32* %mutex) uwtable noinline {
  %1 = alloca i32, align 4
  %2 = alloca i32*, align 8
  store i32* %mutex, i32** %2, align 8
  call void @llvm.dbg.declare(metadata !33, metadata !1016), !dbg !1017
  br label %3, !dbg !1018

; <label>:3                                       ; preds = %0
  call void @__divine_interrupt_mask(), !dbg !1020
  br label %4, !dbg !1020

; <label>:4                                       ; preds = %3
  call void @__divine_interrupt_unmask(), !dbg !1022
  call void @__divine_interrupt(), !dbg !1022
  call void @__divine_interrupt_mask(), !dbg !1022
  br label %5, !dbg !1022

; <label>:5                                       ; preds = %4
  call void @_Z11_initializev(), !dbg !1022
  br label %6, !dbg !1022

; <label>:6                                       ; preds = %5
  %7 = load i32** %2, align 8, !dbg !1024
  %8 = icmp eq i32* %7, null, !dbg !1024
  br i1 %8, label %9, label %10, !dbg !1024

; <label>:9                                       ; preds = %6
  store i32 22, i32* %1, !dbg !1025
  br label %27, !dbg !1025

; <label>:10                                      ; preds = %6
  %11 = load i32** %2, align 8, !dbg !1026
  %12 = load i32* %11, align 4, !dbg !1026
  %13 = and i32 %12, 65535, !dbg !1026
  %14 = icmp ne i32 %13, 0, !dbg !1026
  br i1 %14, label %15, label %23, !dbg !1026

; <label>:15                                      ; preds = %10
  %16 = load i32** %2, align 8, !dbg !1027
  %17 = load i32* %16, align 4, !dbg !1027
  %18 = and i32 %17, 50331648, !dbg !1027
  %19 = icmp eq i32 %18, 33554432, !dbg !1027
  br i1 %19, label %20, label %21, !dbg !1027

; <label>:20                                      ; preds = %15
  store i32 16, i32* %1, !dbg !1029
  br label %27, !dbg !1029

; <label>:21                                      ; preds = %15
  call void @__divine_assert(i32 0), !dbg !1030
  br label %22

; <label>:22                                      ; preds = %21
  br label %23, !dbg !1031

; <label>:23                                      ; preds = %22, %10
  %24 = load i32** %2, align 8, !dbg !1032
  %25 = load i32* %24, align 4, !dbg !1032
  %26 = and i32 %25, -67108865, !dbg !1032
  store i32 %26, i32* %24, align 4, !dbg !1032
  store i32 0, i32* %1, !dbg !1033
  br label %27, !dbg !1033

; <label>:27                                      ; preds = %23, %20, %9
  %28 = load i32* %1, !dbg !1034
  ret i32 %28, !dbg !1034
}

define i32 @pthread_mutex_init(i32* %mutex, i32* %attr) uwtable noinline {
  %1 = alloca i32, align 4
  %2 = alloca i32*, align 8
  %3 = alloca i32*, align 8
  store i32* %mutex, i32** %2, align 8
  call void @llvm.dbg.declare(metadata !33, metadata !1035), !dbg !1036
  store i32* %attr, i32** %3, align 8
  call void @llvm.dbg.declare(metadata !33, metadata !1037), !dbg !1038
  br label %4, !dbg !1039

; <label>:4                                       ; preds = %0
  call void @__divine_interrupt_mask(), !dbg !1041
  br label %5, !dbg !1041

; <label>:5                                       ; preds = %4
  call void @__divine_interrupt_unmask(), !dbg !1043
  call void @__divine_interrupt(), !dbg !1043
  call void @__divine_interrupt_mask(), !dbg !1043
  br label %6, !dbg !1043

; <label>:6                                       ; preds = %5
  call void @_Z11_initializev(), !dbg !1043
  br label %7, !dbg !1043

; <label>:7                                       ; preds = %6
  %8 = load i32** %2, align 8, !dbg !1045
  %9 = icmp eq i32* %8, null, !dbg !1045
  br i1 %9, label %10, label %11, !dbg !1045

; <label>:10                                      ; preds = %7
  store i32 22, i32* %1, !dbg !1046
  br label %38, !dbg !1046

; <label>:11                                      ; preds = %7
  %12 = load i32** %2, align 8, !dbg !1047
  %13 = load i32* %12, align 4, !dbg !1047
  %14 = and i32 %13, 67108864, !dbg !1047
  %15 = icmp ne i32 %14, 0, !dbg !1047
  br i1 %15, label %16, label %23, !dbg !1047

; <label>:16                                      ; preds = %11
  %17 = load i32** %2, align 8, !dbg !1048
  %18 = load i32* %17, align 4, !dbg !1048
  %19 = and i32 %18, 50331648, !dbg !1048
  %20 = icmp eq i32 %19, 33554432, !dbg !1048
  br i1 %20, label %21, label %22, !dbg !1048

; <label>:21                                      ; preds = %16
  store i32 16, i32* %1, !dbg !1050
  br label %38, !dbg !1050

; <label>:22                                      ; preds = %16
  br label %23, !dbg !1051

; <label>:23                                      ; preds = %22, %11
  %24 = load i32** %3, align 8, !dbg !1052
  %25 = icmp ne i32* %24, null, !dbg !1052
  br i1 %25, label %26, label %32, !dbg !1052

; <label>:26                                      ; preds = %23
  %27 = load i32** %3, align 8, !dbg !1053
  %28 = load i32* %27, align 4, !dbg !1053
  %29 = and i32 %28, 3, !dbg !1053
  %30 = shl i32 %29, 24, !dbg !1053
  %31 = load i32** %2, align 8, !dbg !1053
  store i32 %30, i32* %31, align 4, !dbg !1053
  br label %34, !dbg !1053

; <label>:32                                      ; preds = %23
  %33 = load i32** %2, align 8, !dbg !1054
  store i32 0, i32* %33, align 4, !dbg !1054
  br label %34

; <label>:34                                      ; preds = %32, %26
  %35 = load i32** %2, align 8, !dbg !1055
  %36 = load i32* %35, align 4, !dbg !1055
  %37 = or i32 %36, 67108864, !dbg !1055
  store i32 %37, i32* %35, align 4, !dbg !1055
  store i32 0, i32* %1, !dbg !1056
  br label %38, !dbg !1056

; <label>:38                                      ; preds = %34, %21, %10
  %39 = load i32* %1, !dbg !1057
  ret i32 %39, !dbg !1057
}

define i32 @pthread_mutex_lock(i32* %mutex) uwtable noinline {
  %1 = alloca i32*, align 8
  store i32* %mutex, i32** %1, align 8
  call void @llvm.dbg.declare(metadata !33, metadata !1058), !dbg !1059
  br label %2, !dbg !1060

; <label>:2                                       ; preds = %0
  call void @__divine_interrupt_mask(), !dbg !1062
  br label %3, !dbg !1062

; <label>:3                                       ; preds = %2
  call void @__divine_interrupt_unmask(), !dbg !1064
  call void @__divine_interrupt(), !dbg !1064
  call void @__divine_interrupt_mask(), !dbg !1064
  br label %4, !dbg !1064

; <label>:4                                       ; preds = %3
  call void @_Z11_initializev(), !dbg !1064
  br label %5, !dbg !1064

; <label>:5                                       ; preds = %4
  %6 = load i32** %1, align 8, !dbg !1066
  %7 = call i32 @_Z11_mutex_lockPii(i32* %6, i32 1), !dbg !1066
  ret i32 %7, !dbg !1066
}

define i32 @pthread_mutex_trylock(i32* %mutex) uwtable noinline {
  %1 = alloca i32*, align 8
  store i32* %mutex, i32** %1, align 8
  call void @llvm.dbg.declare(metadata !33, metadata !1067), !dbg !1068
  br label %2, !dbg !1069

; <label>:2                                       ; preds = %0
  call void @__divine_interrupt_mask(), !dbg !1071
  br label %3, !dbg !1071

; <label>:3                                       ; preds = %2
  call void @__divine_interrupt_unmask(), !dbg !1073
  call void @__divine_interrupt(), !dbg !1073
  call void @__divine_interrupt_mask(), !dbg !1073
  br label %4, !dbg !1073

; <label>:4                                       ; preds = %3
  call void @_Z11_initializev(), !dbg !1073
  br label %5, !dbg !1073

; <label>:5                                       ; preds = %4
  %6 = load i32** %1, align 8, !dbg !1075
  %7 = call i32 @_Z11_mutex_lockPii(i32* %6, i32 0), !dbg !1075
  ret i32 %7, !dbg !1075
}

define i32 @pthread_mutex_unlock(i32* %mutex) uwtable noinline {
  %1 = alloca i32, align 4
  %2 = alloca i32*, align 8
  %gtid = alloca i32, align 4
  store i32* %mutex, i32** %2, align 8
  call void @llvm.dbg.declare(metadata !33, metadata !1076), !dbg !1077
  br label %3, !dbg !1078

; <label>:3                                       ; preds = %0
  call void @__divine_interrupt_mask(), !dbg !1080
  br label %4, !dbg !1080

; <label>:4                                       ; preds = %3
  call void @__divine_interrupt_unmask(), !dbg !1082
  call void @__divine_interrupt(), !dbg !1082
  call void @__divine_interrupt_mask(), !dbg !1082
  br label %5, !dbg !1082

; <label>:5                                       ; preds = %4
  call void @_Z11_initializev(), !dbg !1082
  br label %6, !dbg !1082

; <label>:6                                       ; preds = %5
  call void @llvm.dbg.declare(metadata !33, metadata !1084), !dbg !1085
  %7 = call i32 @__divine_get_tid(), !dbg !1086
  %8 = call i32 @_Z9_get_gtidi(i32 %7), !dbg !1086
  store i32 %8, i32* %gtid, align 4, !dbg !1086
  %9 = load i32** %2, align 8, !dbg !1087
  %10 = icmp eq i32* %9, null, !dbg !1087
  br i1 %10, label %16, label %11, !dbg !1087

; <label>:11                                      ; preds = %6
  %12 = load i32** %2, align 8, !dbg !1087
  %13 = load i32* %12, align 4, !dbg !1087
  %14 = and i32 %13, 67108864, !dbg !1087
  %15 = icmp ne i32 %14, 0, !dbg !1087
  br i1 %15, label %17, label %16, !dbg !1087

; <label>:16                                      ; preds = %11, %6
  store i32 22, i32* %1, !dbg !1088
  br label %47, !dbg !1088

; <label>:17                                      ; preds = %11
  %18 = load i32** %2, align 8, !dbg !1090
  %19 = load i32* %18, align 4, !dbg !1090
  %20 = and i32 %19, 65535, !dbg !1090
  %21 = load i32* %gtid, align 4, !dbg !1090
  %22 = add nsw i32 %21, 1, !dbg !1090
  %23 = icmp ne i32 %20, %22, !dbg !1090
  br i1 %23, label %24, label %35, !dbg !1090

; <label>:24                                      ; preds = %17
  %25 = load i32** %2, align 8, !dbg !1091
  %26 = load i32* %25, align 4, !dbg !1091
  %27 = and i32 %26, 16711680, !dbg !1091
  call void @__divine_assert(i32 %27), !dbg !1091
  %28 = load i32** %2, align 8, !dbg !1093
  %29 = load i32* %28, align 4, !dbg !1093
  %30 = and i32 %29, 50331648, !dbg !1093
  %31 = icmp eq i32 %30, 0, !dbg !1093
  br i1 %31, label %32, label %33, !dbg !1093

; <label>:32                                      ; preds = %24
  call void @__divine_assert(i32 0), !dbg !1094
  br label %34, !dbg !1094

; <label>:33                                      ; preds = %24
  store i32 1, i32* %1, !dbg !1095
  br label %47, !dbg !1095

; <label>:34                                      ; preds = %32
  br label %35, !dbg !1096

; <label>:35                                      ; preds = %34, %17
  %36 = load i32** %2, align 8, !dbg !1097
  %37 = call i32 @_Z19_mutex_adjust_countPii(i32* %36, i32 -1), !dbg !1097
  %38 = load i32** %2, align 8, !dbg !1098
  %39 = load i32* %38, align 4, !dbg !1098
  %40 = and i32 %39, 16711680, !dbg !1098
  %41 = icmp ne i32 %40, 0, !dbg !1098
  br i1 %41, label %46, label %42, !dbg !1098

; <label>:42                                      ; preds = %35
  %43 = load i32** %2, align 8, !dbg !1099
  %44 = load i32* %43, align 4, !dbg !1099
  %45 = and i32 %44, -65536, !dbg !1099
  store i32 %45, i32* %43, align 4, !dbg !1099
  br label %46, !dbg !1099

; <label>:46                                      ; preds = %42, %35
  store i32 0, i32* %1, !dbg !1100
  br label %47, !dbg !1100

; <label>:47                                      ; preds = %46, %33, %16
  %48 = load i32* %1, !dbg !1101
  ret i32 %48, !dbg !1101
}

define i32 @pthread_mutex_getprioceiling(i32*, i32*) nounwind uwtable noinline {
  %3 = alloca i32*, align 8
  %4 = alloca i32*, align 8
  store i32* %0, i32** %3, align 8
  store i32* %1, i32** %4, align 8
  ret i32 0, !dbg !1102
}

define i32 @pthread_mutex_setprioceiling(i32*, i32, i32*) nounwind uwtable noinline {
  %4 = alloca i32*, align 8
  %5 = alloca i32, align 4
  %6 = alloca i32*, align 8
  store i32* %0, i32** %4, align 8
  store i32 %1, i32* %5, align 4
  store i32* %2, i32** %6, align 8
  ret i32 0, !dbg !1104
}

define i32 @pthread_mutex_timedlock(i32*, %struct.timespec*) nounwind uwtable noinline {
  %3 = alloca i32*, align 8
  %4 = alloca %struct.timespec*, align 8
  store i32* %0, i32** %3, align 8
  store %struct.timespec* %1, %struct.timespec** %4, align 8
  ret i32 0, !dbg !1106
}

define i32 @pthread_mutexattr_destroy(i32* %attr) uwtable noinline {
  %1 = alloca i32, align 4
  %2 = alloca i32*, align 8
  store i32* %attr, i32** %2, align 8
  call void @llvm.dbg.declare(metadata !33, metadata !1108), !dbg !1109
  br label %3, !dbg !1110

; <label>:3                                       ; preds = %0
  call void @__divine_interrupt_mask(), !dbg !1112
  br label %4, !dbg !1112

; <label>:4                                       ; preds = %3
  call void @__divine_interrupt_unmask(), !dbg !1114
  call void @__divine_interrupt(), !dbg !1114
  call void @__divine_interrupt_mask(), !dbg !1114
  br label %5, !dbg !1114

; <label>:5                                       ; preds = %4
  call void @_Z11_initializev(), !dbg !1114
  br label %6, !dbg !1114

; <label>:6                                       ; preds = %5
  %7 = load i32** %2, align 8, !dbg !1116
  %8 = icmp eq i32* %7, null, !dbg !1116
  br i1 %8, label %9, label %10, !dbg !1116

; <label>:9                                       ; preds = %6
  store i32 22, i32* %1, !dbg !1117
  br label %12, !dbg !1117

; <label>:10                                      ; preds = %6
  %11 = load i32** %2, align 8, !dbg !1118
  store i32 0, i32* %11, align 4, !dbg !1118
  store i32 0, i32* %1, !dbg !1119
  br label %12, !dbg !1119

; <label>:12                                      ; preds = %10, %9
  %13 = load i32* %1, !dbg !1120
  ret i32 %13, !dbg !1120
}

define i32 @pthread_mutexattr_init(i32* %attr) uwtable noinline {
  %1 = alloca i32, align 4
  %2 = alloca i32*, align 8
  store i32* %attr, i32** %2, align 8
  call void @llvm.dbg.declare(metadata !33, metadata !1121), !dbg !1122
  br label %3, !dbg !1123

; <label>:3                                       ; preds = %0
  call void @__divine_interrupt_mask(), !dbg !1125
  br label %4, !dbg !1125

; <label>:4                                       ; preds = %3
  call void @__divine_interrupt_unmask(), !dbg !1127
  call void @__divine_interrupt(), !dbg !1127
  call void @__divine_interrupt_mask(), !dbg !1127
  br label %5, !dbg !1127

; <label>:5                                       ; preds = %4
  call void @_Z11_initializev(), !dbg !1127
  br label %6, !dbg !1127

; <label>:6                                       ; preds = %5
  %7 = load i32** %2, align 8, !dbg !1129
  %8 = icmp eq i32* %7, null, !dbg !1129
  br i1 %8, label %9, label %10, !dbg !1129

; <label>:9                                       ; preds = %6
  store i32 22, i32* %1, !dbg !1130
  br label %12, !dbg !1130

; <label>:10                                      ; preds = %6
  %11 = load i32** %2, align 8, !dbg !1131
  store i32 0, i32* %11, align 4, !dbg !1131
  store i32 0, i32* %1, !dbg !1132
  br label %12, !dbg !1132

; <label>:12                                      ; preds = %10, %9
  %13 = load i32* %1, !dbg !1133
  ret i32 %13, !dbg !1133
}

define i32 @pthread_mutexattr_gettype(i32* %attr, i32* %value) uwtable noinline {
  %1 = alloca i32, align 4
  %2 = alloca i32*, align 8
  %3 = alloca i32*, align 8
  store i32* %attr, i32** %2, align 8
  call void @llvm.dbg.declare(metadata !33, metadata !1134), !dbg !1135
  store i32* %value, i32** %3, align 8
  call void @llvm.dbg.declare(metadata !33, metadata !1136), !dbg !1137
  br label %4, !dbg !1138

; <label>:4                                       ; preds = %0
  call void @__divine_interrupt_mask(), !dbg !1140
  br label %5, !dbg !1140

; <label>:5                                       ; preds = %4
  call void @__divine_interrupt_unmask(), !dbg !1142
  call void @__divine_interrupt(), !dbg !1142
  call void @__divine_interrupt_mask(), !dbg !1142
  br label %6, !dbg !1142

; <label>:6                                       ; preds = %5
  call void @_Z11_initializev(), !dbg !1142
  br label %7, !dbg !1142

; <label>:7                                       ; preds = %6
  %8 = load i32** %2, align 8, !dbg !1144
  %9 = icmp eq i32* %8, null, !dbg !1144
  br i1 %9, label %13, label %10, !dbg !1144

; <label>:10                                      ; preds = %7
  %11 = load i32** %3, align 8, !dbg !1144
  %12 = icmp eq i32* %11, null, !dbg !1144
  br i1 %12, label %13, label %14, !dbg !1144

; <label>:13                                      ; preds = %10, %7
  store i32 22, i32* %1, !dbg !1145
  br label %19, !dbg !1145

; <label>:14                                      ; preds = %10
  %15 = load i32** %2, align 8, !dbg !1146
  %16 = load i32* %15, align 4, !dbg !1146
  %17 = and i32 %16, 3, !dbg !1146
  %18 = load i32** %3, align 8, !dbg !1146
  store i32 %17, i32* %18, align 4, !dbg !1146
  store i32 0, i32* %1, !dbg !1147
  br label %19, !dbg !1147

; <label>:19                                      ; preds = %14, %13
  %20 = load i32* %1, !dbg !1148
  ret i32 %20, !dbg !1148
}

define i32 @pthread_mutexattr_getprioceiling(i32*, i32*) nounwind uwtable noinline {
  %3 = alloca i32*, align 8
  %4 = alloca i32*, align 8
  store i32* %0, i32** %3, align 8
  store i32* %1, i32** %4, align 8
  ret i32 0, !dbg !1149
}

define i32 @pthread_mutexattr_getprotocol(i32*, i32*) nounwind uwtable noinline {
  %3 = alloca i32*, align 8
  %4 = alloca i32*, align 8
  store i32* %0, i32** %3, align 8
  store i32* %1, i32** %4, align 8
  ret i32 0, !dbg !1151
}

define i32 @pthread_mutexattr_getpshared(i32*, i32*) nounwind uwtable noinline {
  %3 = alloca i32*, align 8
  %4 = alloca i32*, align 8
  store i32* %0, i32** %3, align 8
  store i32* %1, i32** %4, align 8
  ret i32 0, !dbg !1153
}

define i32 @pthread_mutexattr_settype(i32* %attr, i32 %value) uwtable noinline {
  %1 = alloca i32, align 4
  %2 = alloca i32*, align 8
  %3 = alloca i32, align 4
  store i32* %attr, i32** %2, align 8
  call void @llvm.dbg.declare(metadata !33, metadata !1155), !dbg !1156
  store i32 %value, i32* %3, align 4
  call void @llvm.dbg.declare(metadata !33, metadata !1157), !dbg !1158
  br label %4, !dbg !1159

; <label>:4                                       ; preds = %0
  call void @__divine_interrupt_mask(), !dbg !1161
  br label %5, !dbg !1161

; <label>:5                                       ; preds = %4
  call void @__divine_interrupt_unmask(), !dbg !1163
  call void @__divine_interrupt(), !dbg !1163
  call void @__divine_interrupt_mask(), !dbg !1163
  br label %6, !dbg !1163

; <label>:6                                       ; preds = %5
  call void @_Z11_initializev(), !dbg !1163
  br label %7, !dbg !1163

; <label>:7                                       ; preds = %6
  %8 = load i32** %2, align 8, !dbg !1165
  %9 = icmp eq i32* %8, null, !dbg !1165
  br i1 %9, label %14, label %10, !dbg !1165

; <label>:10                                      ; preds = %7
  %11 = load i32* %3, align 4, !dbg !1165
  %12 = and i32 %11, -4, !dbg !1165
  %13 = icmp ne i32 %12, 0, !dbg !1165
  br i1 %13, label %14, label %15, !dbg !1165

; <label>:14                                      ; preds = %10, %7
  store i32 22, i32* %1, !dbg !1166
  br label %23, !dbg !1166

; <label>:15                                      ; preds = %10
  %16 = load i32** %2, align 8, !dbg !1167
  %17 = load i32* %16, align 4, !dbg !1167
  %18 = and i32 %17, -4, !dbg !1167
  store i32 %18, i32* %16, align 4, !dbg !1167
  %19 = load i32* %3, align 4, !dbg !1168
  %20 = load i32** %2, align 8, !dbg !1168
  %21 = load i32* %20, align 4, !dbg !1168
  %22 = or i32 %21, %19, !dbg !1168
  store i32 %22, i32* %20, align 4, !dbg !1168
  store i32 0, i32* %1, !dbg !1169
  br label %23, !dbg !1169

; <label>:23                                      ; preds = %15, %14
  %24 = load i32* %1, !dbg !1170
  ret i32 %24, !dbg !1170
}

define i32 @pthread_mutexattr_setprioceiling(i32*, i32) nounwind uwtable noinline {
  %3 = alloca i32*, align 8
  %4 = alloca i32, align 4
  store i32* %0, i32** %3, align 8
  store i32 %1, i32* %4, align 4
  ret i32 0, !dbg !1171
}

define i32 @pthread_mutexattr_setprotocol(i32*, i32) nounwind uwtable noinline {
  %3 = alloca i32*, align 8
  %4 = alloca i32, align 4
  store i32* %0, i32** %3, align 8
  store i32 %1, i32* %4, align 4
  ret i32 0, !dbg !1173
}

define i32 @pthread_mutexattr_setpshared(i32*, i32) nounwind uwtable noinline {
  %3 = alloca i32*, align 8
  %4 = alloca i32, align 4
  store i32* %0, i32** %3, align 8
  store i32 %1, i32* %4, align 4
  ret i32 0, !dbg !1175
}

define i32 @pthread_spin_destroy(i32*) nounwind uwtable noinline {
  %2 = alloca i32*, align 8
  store i32* %0, i32** %2, align 8
  ret i32 0, !dbg !1177
}

define i32 @pthread_spin_init(i32*, i32) nounwind uwtable noinline {
  %3 = alloca i32*, align 8
  %4 = alloca i32, align 4
  store i32* %0, i32** %3, align 8
  store i32 %1, i32* %4, align 4
  ret i32 0, !dbg !1179
}

define i32 @pthread_spin_lock(i32*) nounwind uwtable noinline {
  %2 = alloca i32*, align 8
  store i32* %0, i32** %2, align 8
  ret i32 0, !dbg !1181
}

define i32 @pthread_spin_trylock(i32*) nounwind uwtable noinline {
  %2 = alloca i32*, align 8
  store i32* %0, i32** %2, align 8
  ret i32 0, !dbg !1183
}

define i32 @pthread_spin_unlock(i32*) nounwind uwtable noinline {
  %2 = alloca i32*, align 8
  store i32* %0, i32** %2, align 8
  ret i32 0, !dbg !1185
}

define i32 @pthread_key_create(%struct._PerThreadData** %p_key, void (i8*)* %destructor) uwtable noinline {
  %1 = alloca %struct._PerThreadData**, align 8
  %2 = alloca void (i8*)*, align 8
  %_key = alloca i8*, align 8
  %key = alloca %struct._PerThreadData*, align 8
  %i = alloca i32, align 4
  store %struct._PerThreadData** %p_key, %struct._PerThreadData*** %1, align 8
  call void @llvm.dbg.declare(metadata !33, metadata !1187), !dbg !1188
  store void (i8*)* %destructor, void (i8*)** %2, align 8
  call void @llvm.dbg.declare(metadata !33, metadata !1189), !dbg !1190
  br label %3, !dbg !1191

; <label>:3                                       ; preds = %0
  call void @__divine_interrupt_mask(), !dbg !1193
  br label %4, !dbg !1193

; <label>:4                                       ; preds = %3
  call void @__divine_interrupt_unmask(), !dbg !1195
  call void @__divine_interrupt(), !dbg !1195
  call void @__divine_interrupt_mask(), !dbg !1195
  br label %5, !dbg !1195

; <label>:5                                       ; preds = %4
  call void @_Z11_initializev(), !dbg !1195
  br label %6, !dbg !1195

; <label>:6                                       ; preds = %5
  call void @llvm.dbg.declare(metadata !33, metadata !1197), !dbg !1198
  %7 = call i8* @__divine_malloc(i64 32), !dbg !1199
  store i8* %7, i8** %_key, align 8, !dbg !1199
  call void @llvm.dbg.declare(metadata !33, metadata !1200), !dbg !1201
  %8 = load i8** %_key, align 8, !dbg !1202
  %9 = bitcast i8* %8 to %struct._PerThreadData*, !dbg !1202
  store %struct._PerThreadData* %9, %struct._PerThreadData** %key, align 8, !dbg !1202
  %10 = load i32* @alloc_pslots, align 4, !dbg !1203
  %11 = icmp ne i32 %10, 0, !dbg !1203
  br i1 %11, label %12, label %20, !dbg !1203

; <label>:12                                      ; preds = %6
  %13 = load i32* @alloc_pslots, align 4, !dbg !1204
  %14 = zext i32 %13 to i64, !dbg !1204
  %15 = mul i64 8, %14, !dbg !1204
  %16 = call i8* @__divine_malloc(i64 %15), !dbg !1204
  %17 = bitcast i8* %16 to i8**, !dbg !1204
  %18 = load %struct._PerThreadData** %key, align 8, !dbg !1204
  %19 = getelementptr inbounds %struct._PerThreadData* %18, i32 0, i32 0, !dbg !1204
  store i8** %17, i8*** %19, align 8, !dbg !1204
  br label %23, !dbg !1206

; <label>:20                                      ; preds = %6
  %21 = load %struct._PerThreadData** %key, align 8, !dbg !1207
  %22 = getelementptr inbounds %struct._PerThreadData* %21, i32 0, i32 0, !dbg !1207
  store i8** null, i8*** %22, align 8, !dbg !1207
  br label %23

; <label>:23                                      ; preds = %20, %12
  %24 = load void (i8*)** %2, align 8, !dbg !1208
  %25 = load %struct._PerThreadData** %key, align 8, !dbg !1208
  %26 = getelementptr inbounds %struct._PerThreadData* %25, i32 0, i32 1, !dbg !1208
  store void (i8*)* %24, void (i8*)** %26, align 8, !dbg !1208
  call void @llvm.dbg.declare(metadata !33, metadata !1209), !dbg !1211
  store i32 0, i32* %i, align 4, !dbg !1212
  br label %27, !dbg !1212

; <label>:27                                      ; preds = %38, %23
  %28 = load i32* %i, align 4, !dbg !1212
  %29 = load i32* @alloc_pslots, align 4, !dbg !1212
  %30 = icmp ult i32 %28, %29, !dbg !1212
  br i1 %30, label %31, label %41, !dbg !1212

; <label>:31                                      ; preds = %27
  %32 = load i32* %i, align 4, !dbg !1213
  %33 = sext i32 %32 to i64, !dbg !1213
  %34 = load %struct._PerThreadData** %key, align 8, !dbg !1213
  %35 = getelementptr inbounds %struct._PerThreadData* %34, i32 0, i32 0, !dbg !1213
  %36 = load i8*** %35, align 8, !dbg !1213
  %37 = getelementptr inbounds i8** %36, i64 %33, !dbg !1213
  store i8* null, i8** %37, align 8, !dbg !1213
  br label %38, !dbg !1215

; <label>:38                                      ; preds = %31
  %39 = load i32* %i, align 4, !dbg !1216
  %40 = add nsw i32 %39, 1, !dbg !1216
  store i32 %40, i32* %i, align 4, !dbg !1216
  br label %27, !dbg !1216

; <label>:41                                      ; preds = %27
  %42 = load %struct._PerThreadData** @keys, align 8, !dbg !1217
  %43 = load %struct._PerThreadData** %key, align 8, !dbg !1217
  %44 = getelementptr inbounds %struct._PerThreadData* %43, i32 0, i32 2, !dbg !1217
  store %struct._PerThreadData* %42, %struct._PerThreadData** %44, align 8, !dbg !1217
  %45 = load %struct._PerThreadData** %key, align 8, !dbg !1218
  %46 = getelementptr inbounds %struct._PerThreadData* %45, i32 0, i32 2, !dbg !1218
  %47 = load %struct._PerThreadData** %46, align 8, !dbg !1218
  %48 = icmp ne %struct._PerThreadData* %47, null, !dbg !1218
  br i1 %48, label %49, label %55, !dbg !1218

; <label>:49                                      ; preds = %41
  %50 = load %struct._PerThreadData** %key, align 8, !dbg !1219
  %51 = load %struct._PerThreadData** %key, align 8, !dbg !1219
  %52 = getelementptr inbounds %struct._PerThreadData* %51, i32 0, i32 2, !dbg !1219
  %53 = load %struct._PerThreadData** %52, align 8, !dbg !1219
  %54 = getelementptr inbounds %struct._PerThreadData* %53, i32 0, i32 3, !dbg !1219
  store %struct._PerThreadData* %50, %struct._PerThreadData** %54, align 8, !dbg !1219
  br label %55, !dbg !1219

; <label>:55                                      ; preds = %49, %41
  %56 = load %struct._PerThreadData** %key, align 8, !dbg !1220
  %57 = getelementptr inbounds %struct._PerThreadData* %56, i32 0, i32 3, !dbg !1220
  store %struct._PerThreadData* null, %struct._PerThreadData** %57, align 8, !dbg !1220
  %58 = load %struct._PerThreadData** %key, align 8, !dbg !1221
  store %struct._PerThreadData* %58, %struct._PerThreadData** @keys, align 8, !dbg !1221
  %59 = load %struct._PerThreadData** %key, align 8, !dbg !1222
  %60 = load %struct._PerThreadData*** %1, align 8, !dbg !1222
  store %struct._PerThreadData* %59, %struct._PerThreadData** %60, align 8, !dbg !1222
  ret i32 0, !dbg !1223
}

define i32 @pthread_key_delete(%struct._PerThreadData* %key) uwtable noinline {
  %1 = alloca i32, align 4
  %2 = alloca %struct._PerThreadData*, align 8
  store %struct._PerThreadData* %key, %struct._PerThreadData** %2, align 8
  call void @llvm.dbg.declare(metadata !33, metadata !1224), !dbg !1225
  br label %3, !dbg !1226

; <label>:3                                       ; preds = %0
  call void @__divine_interrupt_mask(), !dbg !1228
  br label %4, !dbg !1228

; <label>:4                                       ; preds = %3
  call void @__divine_interrupt_unmask(), !dbg !1230
  call void @__divine_interrupt(), !dbg !1230
  call void @__divine_interrupt_mask(), !dbg !1230
  br label %5, !dbg !1230

; <label>:5                                       ; preds = %4
  call void @_Z11_initializev(), !dbg !1230
  br label %6, !dbg !1230

; <label>:6                                       ; preds = %5
  %7 = load %struct._PerThreadData** %2, align 8, !dbg !1232
  %8 = icmp eq %struct._PerThreadData* %7, null, !dbg !1232
  br i1 %8, label %9, label %10, !dbg !1232

; <label>:9                                       ; preds = %6
  store i32 22, i32* %1, !dbg !1233
  br label %51, !dbg !1233

; <label>:10                                      ; preds = %6
  %11 = load %struct._PerThreadData** @keys, align 8, !dbg !1234
  %12 = load %struct._PerThreadData** %2, align 8, !dbg !1234
  %13 = icmp eq %struct._PerThreadData* %11, %12, !dbg !1234
  br i1 %13, label %14, label %18, !dbg !1234

; <label>:14                                      ; preds = %10
  %15 = load %struct._PerThreadData** %2, align 8, !dbg !1235
  %16 = getelementptr inbounds %struct._PerThreadData* %15, i32 0, i32 2, !dbg !1235
  %17 = load %struct._PerThreadData** %16, align 8, !dbg !1235
  store %struct._PerThreadData* %17, %struct._PerThreadData** @keys, align 8, !dbg !1235
  br label %18, !dbg !1237

; <label>:18                                      ; preds = %14, %10
  %19 = load %struct._PerThreadData** %2, align 8, !dbg !1238
  %20 = getelementptr inbounds %struct._PerThreadData* %19, i32 0, i32 2, !dbg !1238
  %21 = load %struct._PerThreadData** %20, align 8, !dbg !1238
  %22 = icmp ne %struct._PerThreadData* %21, null, !dbg !1238
  br i1 %22, label %23, label %31, !dbg !1238

; <label>:23                                      ; preds = %18
  %24 = load %struct._PerThreadData** %2, align 8, !dbg !1239
  %25 = getelementptr inbounds %struct._PerThreadData* %24, i32 0, i32 3, !dbg !1239
  %26 = load %struct._PerThreadData** %25, align 8, !dbg !1239
  %27 = load %struct._PerThreadData** %2, align 8, !dbg !1239
  %28 = getelementptr inbounds %struct._PerThreadData* %27, i32 0, i32 2, !dbg !1239
  %29 = load %struct._PerThreadData** %28, align 8, !dbg !1239
  %30 = getelementptr inbounds %struct._PerThreadData* %29, i32 0, i32 3, !dbg !1239
  store %struct._PerThreadData* %26, %struct._PerThreadData** %30, align 8, !dbg !1239
  br label %31, !dbg !1241

; <label>:31                                      ; preds = %23, %18
  %32 = load %struct._PerThreadData** %2, align 8, !dbg !1242
  %33 = getelementptr inbounds %struct._PerThreadData* %32, i32 0, i32 3, !dbg !1242
  %34 = load %struct._PerThreadData** %33, align 8, !dbg !1242
  %35 = icmp ne %struct._PerThreadData* %34, null, !dbg !1242
  br i1 %35, label %36, label %44, !dbg !1242

; <label>:36                                      ; preds = %31
  %37 = load %struct._PerThreadData** %2, align 8, !dbg !1243
  %38 = getelementptr inbounds %struct._PerThreadData* %37, i32 0, i32 2, !dbg !1243
  %39 = load %struct._PerThreadData** %38, align 8, !dbg !1243
  %40 = load %struct._PerThreadData** %2, align 8, !dbg !1243
  %41 = getelementptr inbounds %struct._PerThreadData* %40, i32 0, i32 3, !dbg !1243
  %42 = load %struct._PerThreadData** %41, align 8, !dbg !1243
  %43 = getelementptr inbounds %struct._PerThreadData* %42, i32 0, i32 2, !dbg !1243
  store %struct._PerThreadData* %39, %struct._PerThreadData** %43, align 8, !dbg !1243
  br label %44, !dbg !1245

; <label>:44                                      ; preds = %36, %31
  %45 = load %struct._PerThreadData** %2, align 8, !dbg !1246
  %46 = getelementptr inbounds %struct._PerThreadData* %45, i32 0, i32 0, !dbg !1246
  %47 = load i8*** %46, align 8, !dbg !1246
  %48 = bitcast i8** %47 to i8*, !dbg !1246
  call void @__divine_free(i8* %48), !dbg !1246
  %49 = load %struct._PerThreadData** %2, align 8, !dbg !1247
  %50 = bitcast %struct._PerThreadData* %49 to i8*, !dbg !1247
  call void @__divine_free(i8* %50), !dbg !1247
  store i32 0, i32* %1, !dbg !1248
  br label %51, !dbg !1248

; <label>:51                                      ; preds = %44, %9
  %52 = load i32* %1, !dbg !1249
  ret i32 %52, !dbg !1249
}

define i32 @_Z18_cond_adjust_countP14pthread_cond_ti(%struct.pthread_cond_t* %cond, i32 %adj) uwtable {
  %1 = alloca %struct.pthread_cond_t*, align 8
  %2 = alloca i32, align 4
  %count = alloca i32, align 4
  store %struct.pthread_cond_t* %cond, %struct.pthread_cond_t** %1, align 8
  call void @llvm.dbg.declare(metadata !33, metadata !1250), !dbg !1251
  store i32 %adj, i32* %2, align 4
  call void @llvm.dbg.declare(metadata !33, metadata !1252), !dbg !1253
  call void @llvm.dbg.declare(metadata !33, metadata !1254), !dbg !1256
  %3 = load %struct.pthread_cond_t** %1, align 8, !dbg !1257
  %4 = getelementptr inbounds %struct.pthread_cond_t* %3, i32 0, i32 1, !dbg !1257
  %5 = load i32* %4, align 4, !dbg !1257
  %6 = and i32 %5, 65535, !dbg !1257
  store i32 %6, i32* %count, align 4, !dbg !1257
  %7 = load i32* %2, align 4, !dbg !1258
  %8 = load i32* %count, align 4, !dbg !1258
  %9 = add nsw i32 %8, %7, !dbg !1258
  store i32 %9, i32* %count, align 4, !dbg !1258
  %10 = load i32* %count, align 4, !dbg !1259
  %11 = icmp slt i32 %10, 65536, !dbg !1259
  %12 = zext i1 %11 to i32, !dbg !1259
  call void @__divine_assert(i32 %12), !dbg !1259
  %13 = load %struct.pthread_cond_t** %1, align 8, !dbg !1260
  %14 = getelementptr inbounds %struct.pthread_cond_t* %13, i32 0, i32 1, !dbg !1260
  %15 = load i32* %14, align 4, !dbg !1260
  %16 = and i32 %15, -65536, !dbg !1260
  store i32 %16, i32* %14, align 4, !dbg !1260
  %17 = load i32* %count, align 4, !dbg !1261
  %18 = load %struct.pthread_cond_t** %1, align 8, !dbg !1261
  %19 = getelementptr inbounds %struct.pthread_cond_t* %18, i32 0, i32 1, !dbg !1261
  %20 = load i32* %19, align 4, !dbg !1261
  %21 = or i32 %20, %17, !dbg !1261
  store i32 %21, i32* %19, align 4, !dbg !1261
  %22 = load i32* %count, align 4, !dbg !1262
  ret i32 %22, !dbg !1262
}

define i32 @pthread_cond_destroy(%struct.pthread_cond_t* %cond) uwtable noinline {
  %1 = alloca i32, align 4
  %2 = alloca %struct.pthread_cond_t*, align 8
  store %struct.pthread_cond_t* %cond, %struct.pthread_cond_t** %2, align 8
  call void @llvm.dbg.declare(metadata !33, metadata !1263), !dbg !1264
  br label %3, !dbg !1265

; <label>:3                                       ; preds = %0
  call void @__divine_interrupt_mask(), !dbg !1267
  br label %4, !dbg !1267

; <label>:4                                       ; preds = %3
  call void @__divine_interrupt_unmask(), !dbg !1269
  call void @__divine_interrupt(), !dbg !1269
  call void @__divine_interrupt_mask(), !dbg !1269
  br label %5, !dbg !1269

; <label>:5                                       ; preds = %4
  call void @_Z11_initializev(), !dbg !1269
  br label %6, !dbg !1269

; <label>:6                                       ; preds = %5
  %7 = load %struct.pthread_cond_t** %2, align 8, !dbg !1271
  %8 = icmp eq %struct.pthread_cond_t* %7, null, !dbg !1271
  br i1 %8, label %15, label %9, !dbg !1271

; <label>:9                                       ; preds = %6
  %10 = load %struct.pthread_cond_t** %2, align 8, !dbg !1271
  %11 = getelementptr inbounds %struct.pthread_cond_t* %10, i32 0, i32 1, !dbg !1271
  %12 = load i32* %11, align 4, !dbg !1271
  %13 = and i32 %12, 65536, !dbg !1271
  %14 = icmp ne i32 %13, 0, !dbg !1271
  br i1 %14, label %16, label %15, !dbg !1271

; <label>:15                                      ; preds = %9, %6
  store i32 22, i32* %1, !dbg !1272
  br label %27, !dbg !1272

; <label>:16                                      ; preds = %9
  %17 = load %struct.pthread_cond_t** %2, align 8, !dbg !1273
  %18 = getelementptr inbounds %struct.pthread_cond_t* %17, i32 0, i32 1, !dbg !1273
  %19 = load i32* %18, align 4, !dbg !1273
  %20 = and i32 %19, 65535, !dbg !1273
  %21 = icmp eq i32 %20, 0, !dbg !1273
  %22 = zext i1 %21 to i32, !dbg !1273
  call void @__divine_assert(i32 %22), !dbg !1273
  %23 = load %struct.pthread_cond_t** %2, align 8, !dbg !1274
  %24 = getelementptr inbounds %struct.pthread_cond_t* %23, i32 0, i32 0, !dbg !1274
  store i32* null, i32** %24, align 8, !dbg !1274
  %25 = load %struct.pthread_cond_t** %2, align 8, !dbg !1275
  %26 = getelementptr inbounds %struct.pthread_cond_t* %25, i32 0, i32 1, !dbg !1275
  store i32 0, i32* %26, align 4, !dbg !1275
  store i32 0, i32* %1, !dbg !1276
  br label %27, !dbg !1276

; <label>:27                                      ; preds = %16, %15
  %28 = load i32* %1, !dbg !1277
  ret i32 %28, !dbg !1277
}

define i32 @pthread_cond_init(%struct.pthread_cond_t* %cond, i32*) uwtable noinline {
  %2 = alloca i32, align 4
  %3 = alloca %struct.pthread_cond_t*, align 8
  %4 = alloca i32*, align 8
  store %struct.pthread_cond_t* %cond, %struct.pthread_cond_t** %3, align 8
  call void @llvm.dbg.declare(metadata !33, metadata !1278), !dbg !1279
  store i32* %0, i32** %4, align 8
  br label %5, !dbg !1280

; <label>:5                                       ; preds = %1
  call void @__divine_interrupt_mask(), !dbg !1282
  br label %6, !dbg !1282

; <label>:6                                       ; preds = %5
  call void @__divine_interrupt_unmask(), !dbg !1284
  call void @__divine_interrupt(), !dbg !1284
  call void @__divine_interrupt_mask(), !dbg !1284
  br label %7, !dbg !1284

; <label>:7                                       ; preds = %6
  call void @_Z11_initializev(), !dbg !1284
  br label %8, !dbg !1284

; <label>:8                                       ; preds = %7
  %9 = load %struct.pthread_cond_t** %3, align 8, !dbg !1286
  %10 = icmp eq %struct.pthread_cond_t* %9, null, !dbg !1286
  br i1 %10, label %11, label %12, !dbg !1286

; <label>:11                                      ; preds = %8
  store i32 22, i32* %2, !dbg !1287
  br label %24, !dbg !1287

; <label>:12                                      ; preds = %8
  %13 = load %struct.pthread_cond_t** %3, align 8, !dbg !1288
  %14 = getelementptr inbounds %struct.pthread_cond_t* %13, i32 0, i32 1, !dbg !1288
  %15 = load i32* %14, align 4, !dbg !1288
  %16 = and i32 %15, 65536, !dbg !1288
  %17 = icmp ne i32 %16, 0, !dbg !1288
  br i1 %17, label %18, label %19, !dbg !1288

; <label>:18                                      ; preds = %12
  store i32 16, i32* %2, !dbg !1289
  br label %24, !dbg !1289

; <label>:19                                      ; preds = %12
  %20 = load %struct.pthread_cond_t** %3, align 8, !dbg !1290
  %21 = getelementptr inbounds %struct.pthread_cond_t* %20, i32 0, i32 0, !dbg !1290
  store i32* null, i32** %21, align 8, !dbg !1290
  %22 = load %struct.pthread_cond_t** %3, align 8, !dbg !1291
  %23 = getelementptr inbounds %struct.pthread_cond_t* %22, i32 0, i32 1, !dbg !1291
  store i32 65536, i32* %23, align 4, !dbg !1291
  store i32 0, i32* %2, !dbg !1292
  br label %24, !dbg !1292

; <label>:24                                      ; preds = %19, %18, %11
  %25 = load i32* %2, !dbg !1293
  ret i32 %25, !dbg !1293
}

define i32 @_Z12_cond_signalP14pthread_cond_ti(%struct.pthread_cond_t* %cond, i32 %broadcast) uwtable {
  %1 = alloca i32, align 4
  %2 = alloca %struct.pthread_cond_t*, align 8
  %3 = alloca i32, align 4
  %count = alloca i32, align 4
  %waiting = alloca i32, align 4
  %wokenup = alloca i32, align 4
  %choice = alloca i32, align 4
  %i = alloca i32, align 4
  store %struct.pthread_cond_t* %cond, %struct.pthread_cond_t** %2, align 8
  call void @llvm.dbg.declare(metadata !33, metadata !1294), !dbg !1295
  store i32 %broadcast, i32* %3, align 4
  call void @llvm.dbg.declare(metadata !33, metadata !1296), !dbg !1297
  %4 = load %struct.pthread_cond_t** %2, align 8, !dbg !1298
  %5 = icmp eq %struct.pthread_cond_t* %4, null, !dbg !1298
  br i1 %5, label %12, label %6, !dbg !1298

; <label>:6                                       ; preds = %0
  %7 = load %struct.pthread_cond_t** %2, align 8, !dbg !1298
  %8 = getelementptr inbounds %struct.pthread_cond_t* %7, i32 0, i32 1, !dbg !1298
  %9 = load i32* %8, align 4, !dbg !1298
  %10 = and i32 %9, 65536, !dbg !1298
  %11 = icmp ne i32 %10, 0, !dbg !1298
  br i1 %11, label %13, label %12, !dbg !1298

; <label>:12                                      ; preds = %6, %0
  store i32 22, i32* %1, !dbg !1300
  br label %108, !dbg !1300

; <label>:13                                      ; preds = %6
  call void @llvm.dbg.declare(metadata !33, metadata !1301), !dbg !1302
  %14 = load %struct.pthread_cond_t** %2, align 8, !dbg !1303
  %15 = getelementptr inbounds %struct.pthread_cond_t* %14, i32 0, i32 1, !dbg !1303
  %16 = load i32* %15, align 4, !dbg !1303
  %17 = and i32 %16, 65535, !dbg !1303
  store i32 %17, i32* %count, align 4, !dbg !1303
  %18 = load i32* %count, align 4, !dbg !1304
  %19 = icmp ne i32 %18, 0, !dbg !1304
  br i1 %19, label %20, label %107, !dbg !1304

; <label>:20                                      ; preds = %13
  call void @llvm.dbg.declare(metadata !33, metadata !1305), !dbg !1307
  store i32 0, i32* %waiting, align 4, !dbg !1308
  call void @llvm.dbg.declare(metadata !33, metadata !1309), !dbg !1310
  store i32 0, i32* %wokenup, align 4, !dbg !1308
  call void @llvm.dbg.declare(metadata !33, metadata !1311), !dbg !1312
  %21 = load i32* %3, align 4, !dbg !1313
  %22 = icmp ne i32 %21, 0, !dbg !1313
  br i1 %22, label %28, label %23, !dbg !1313

; <label>:23                                      ; preds = %20
  %24 = load i32* %count, align 4, !dbg !1314
  %25 = shl i32 1, %24, !dbg !1314
  %26 = sub nsw i32 %25, 1, !dbg !1314
  %27 = call i32 @__divine_choice(i32 %26), !dbg !1314
  store i32 %27, i32* %choice, align 4, !dbg !1314
  br label %28, !dbg !1316

; <label>:28                                      ; preds = %23, %20
  call void @llvm.dbg.declare(metadata !33, metadata !1317), !dbg !1319
  store i32 0, i32* %i, align 4, !dbg !1320
  br label %29, !dbg !1320

; <label>:29                                      ; preds = %90, %28
  %30 = load i32* %i, align 4, !dbg !1320
  %31 = load i32* @alloc_pslots, align 4, !dbg !1320
  %32 = icmp ult i32 %30, %31, !dbg !1320
  br i1 %32, label %33, label %93, !dbg !1320

; <label>:33                                      ; preds = %29
  %34 = load i32* %i, align 4, !dbg !1321
  %35 = sext i32 %34 to i64, !dbg !1321
  %36 = load %struct.Thread*** @threads, align 8, !dbg !1321
  %37 = getelementptr inbounds %struct.Thread** %36, i64 %35, !dbg !1321
  %38 = load %struct.Thread** %37, align 8, !dbg !1321
  %39 = icmp ne %struct.Thread* %38, null, !dbg !1321
  br i1 %39, label %41, label %40, !dbg !1321

; <label>:40                                      ; preds = %33
  br label %90, !dbg !1323

; <label>:41                                      ; preds = %33
  %42 = load i32* %i, align 4, !dbg !1324
  %43 = sext i32 %42 to i64, !dbg !1324
  %44 = load %struct.Thread*** @threads, align 8, !dbg !1324
  %45 = getelementptr inbounds %struct.Thread** %44, i64 %43, !dbg !1324
  %46 = load %struct.Thread** %45, align 8, !dbg !1324
  %47 = getelementptr inbounds %struct.Thread* %46, i32 0, i32 5, !dbg !1324
  %48 = load i32* %47, align 4, !dbg !1324
  %49 = icmp ne i32 %48, 0, !dbg !1324
  br i1 %49, label %50, label %89, !dbg !1324

; <label>:50                                      ; preds = %41
  %51 = load i32* %i, align 4, !dbg !1324
  %52 = sext i32 %51 to i64, !dbg !1324
  %53 = load %struct.Thread*** @threads, align 8, !dbg !1324
  %54 = getelementptr inbounds %struct.Thread** %53, i64 %52, !dbg !1324
  %55 = load %struct.Thread** %54, align 8, !dbg !1324
  %56 = getelementptr inbounds %struct.Thread* %55, i32 0, i32 6, !dbg !1324
  %57 = load %struct.pthread_cond_t** %56, align 8, !dbg !1324
  %58 = load %struct.pthread_cond_t** %2, align 8, !dbg !1324
  %59 = icmp eq %struct.pthread_cond_t* %57, %58, !dbg !1324
  br i1 %59, label %60, label %89, !dbg !1324

; <label>:60                                      ; preds = %50
  %61 = load i32* %waiting, align 4, !dbg !1325
  %62 = add nsw i32 %61, 1, !dbg !1325
  store i32 %62, i32* %waiting, align 4, !dbg !1325
  %63 = load i32* %3, align 4, !dbg !1327
  %64 = icmp ne i32 %63, 0, !dbg !1327
  br i1 %64, label %73, label %65, !dbg !1327

; <label>:65                                      ; preds = %60
  %66 = load i32* %choice, align 4, !dbg !1327
  %67 = add nsw i32 %66, 1, !dbg !1327
  %68 = load i32* %waiting, align 4, !dbg !1327
  %69 = sub nsw i32 %68, 1, !dbg !1327
  %70 = shl i32 1, %69, !dbg !1327
  %71 = and i32 %67, %70, !dbg !1327
  %72 = icmp ne i32 %71, 0, !dbg !1327
  br i1 %72, label %73, label %88, !dbg !1327

; <label>:73                                      ; preds = %65, %60
  %74 = load i32* %i, align 4, !dbg !1328
  %75 = sext i32 %74 to i64, !dbg !1328
  %76 = load %struct.Thread*** @threads, align 8, !dbg !1328
  %77 = getelementptr inbounds %struct.Thread** %76, i64 %75, !dbg !1328
  %78 = load %struct.Thread** %77, align 8, !dbg !1328
  %79 = getelementptr inbounds %struct.Thread* %78, i32 0, i32 5, !dbg !1328
  store i32 0, i32* %79, align 4, !dbg !1328
  %80 = load i32* %i, align 4, !dbg !1330
  %81 = sext i32 %80 to i64, !dbg !1330
  %82 = load %struct.Thread*** @threads, align 8, !dbg !1330
  %83 = getelementptr inbounds %struct.Thread** %82, i64 %81, !dbg !1330
  %84 = load %struct.Thread** %83, align 8, !dbg !1330
  %85 = getelementptr inbounds %struct.Thread* %84, i32 0, i32 6, !dbg !1330
  store %struct.pthread_cond_t* null, %struct.pthread_cond_t** %85, align 8, !dbg !1330
  %86 = load i32* %wokenup, align 4, !dbg !1331
  %87 = add nsw i32 %86, 1, !dbg !1331
  store i32 %87, i32* %wokenup, align 4, !dbg !1331
  br label %88, !dbg !1332

; <label>:88                                      ; preds = %73, %65
  br label %89, !dbg !1333

; <label>:89                                      ; preds = %88, %50, %41
  br label %90, !dbg !1334

; <label>:90                                      ; preds = %89, %40
  %91 = load i32* %i, align 4, !dbg !1335
  %92 = add nsw i32 %91, 1, !dbg !1335
  store i32 %92, i32* %i, align 4, !dbg !1335
  br label %29, !dbg !1335

; <label>:93                                      ; preds = %29
  %94 = load i32* %count, align 4, !dbg !1336
  %95 = load i32* %waiting, align 4, !dbg !1336
  %96 = icmp eq i32 %94, %95, !dbg !1336
  %97 = zext i1 %96 to i32, !dbg !1336
  call void @__divine_assert(i32 %97), !dbg !1336
  %98 = load %struct.pthread_cond_t** %2, align 8, !dbg !1337
  %99 = load i32* %wokenup, align 4, !dbg !1337
  %100 = sub nsw i32 0, %99, !dbg !1337
  %101 = call i32 @_Z18_cond_adjust_countP14pthread_cond_ti(%struct.pthread_cond_t* %98, i32 %100), !dbg !1337
  %102 = icmp ne i32 %101, 0, !dbg !1337
  br i1 %102, label %106, label %103, !dbg !1337

; <label>:103                                     ; preds = %93
  %104 = load %struct.pthread_cond_t** %2, align 8, !dbg !1338
  %105 = getelementptr inbounds %struct.pthread_cond_t* %104, i32 0, i32 0, !dbg !1338
  store i32* null, i32** %105, align 8, !dbg !1338
  br label %106, !dbg !1338

; <label>:106                                     ; preds = %103, %93
  br label %107, !dbg !1339

; <label>:107                                     ; preds = %106, %13
  store i32 0, i32* %1, !dbg !1340
  br label %108, !dbg !1340

; <label>:108                                     ; preds = %107, %12
  %109 = load i32* %1, !dbg !1341
  ret i32 %109, !dbg !1341
}

declare i32 @__divine_choice(i32)

define i32 @pthread_cond_signal(%struct.pthread_cond_t* %cond) uwtable noinline {
  %1 = alloca %struct.pthread_cond_t*, align 8
  store %struct.pthread_cond_t* %cond, %struct.pthread_cond_t** %1, align 8
  call void @llvm.dbg.declare(metadata !33, metadata !1342), !dbg !1343
  br label %2, !dbg !1344

; <label>:2                                       ; preds = %0
  call void @__divine_interrupt_mask(), !dbg !1346
  br label %3, !dbg !1346

; <label>:3                                       ; preds = %2
  call void @__divine_interrupt_unmask(), !dbg !1348
  call void @__divine_interrupt(), !dbg !1348
  call void @__divine_interrupt_mask(), !dbg !1348
  br label %4, !dbg !1348

; <label>:4                                       ; preds = %3
  call void @_Z11_initializev(), !dbg !1348
  br label %5, !dbg !1348

; <label>:5                                       ; preds = %4
  %6 = load %struct.pthread_cond_t** %1, align 8, !dbg !1350
  %7 = call i32 @_Z12_cond_signalP14pthread_cond_ti(%struct.pthread_cond_t* %6, i32 0), !dbg !1350
  ret i32 %7, !dbg !1350
}

define i32 @pthread_cond_broadcast(%struct.pthread_cond_t* %cond) uwtable noinline {
  %1 = alloca %struct.pthread_cond_t*, align 8
  store %struct.pthread_cond_t* %cond, %struct.pthread_cond_t** %1, align 8
  call void @llvm.dbg.declare(metadata !33, metadata !1351), !dbg !1352
  br label %2, !dbg !1353

; <label>:2                                       ; preds = %0
  call void @__divine_interrupt_mask(), !dbg !1355
  br label %3, !dbg !1355

; <label>:3                                       ; preds = %2
  call void @__divine_interrupt_unmask(), !dbg !1357
  call void @__divine_interrupt(), !dbg !1357
  call void @__divine_interrupt_mask(), !dbg !1357
  br label %4, !dbg !1357

; <label>:4                                       ; preds = %3
  call void @_Z11_initializev(), !dbg !1357
  br label %5, !dbg !1357

; <label>:5                                       ; preds = %4
  %6 = load %struct.pthread_cond_t** %1, align 8, !dbg !1359
  %7 = call i32 @_Z12_cond_signalP14pthread_cond_ti(%struct.pthread_cond_t* %6, i32 1), !dbg !1359
  ret i32 %7, !dbg !1359
}

define i32 @pthread_cond_wait(%struct.pthread_cond_t* %cond, i32* %mutex) uwtable noinline {
  %1 = alloca i32, align 4
  %2 = alloca %struct.pthread_cond_t*, align 8
  %3 = alloca i32*, align 8
  %ltid = alloca i32, align 4
  %gtid = alloca i32, align 4
  %thread = alloca %struct.Thread*, align 8
  store %struct.pthread_cond_t* %cond, %struct.pthread_cond_t** %2, align 8
  call void @llvm.dbg.declare(metadata !33, metadata !1360), !dbg !1361
  store i32* %mutex, i32** %3, align 8
  call void @llvm.dbg.declare(metadata !33, metadata !1362), !dbg !1363
  br label %4, !dbg !1364

; <label>:4                                       ; preds = %0
  call void @__divine_interrupt_mask(), !dbg !1366
  br label %5, !dbg !1366

; <label>:5                                       ; preds = %4
  call void @__divine_interrupt_unmask(), !dbg !1368
  call void @__divine_interrupt(), !dbg !1368
  call void @__divine_interrupt_mask(), !dbg !1368
  br label %6, !dbg !1368

; <label>:6                                       ; preds = %5
  call void @_Z11_initializev(), !dbg !1368
  br label %7, !dbg !1368

; <label>:7                                       ; preds = %6
  call void @llvm.dbg.declare(metadata !33, metadata !1370), !dbg !1371
  %8 = call i32 @__divine_get_tid(), !dbg !1372
  store i32 %8, i32* %ltid, align 4, !dbg !1372
  call void @llvm.dbg.declare(metadata !33, metadata !1373), !dbg !1374
  %9 = call i32 @__divine_get_tid(), !dbg !1375
  %10 = call i32 @_Z9_get_gtidi(i32 %9), !dbg !1375
  store i32 %10, i32* %gtid, align 4, !dbg !1375
  %11 = load %struct.pthread_cond_t** %2, align 8, !dbg !1376
  %12 = icmp eq %struct.pthread_cond_t* %11, null, !dbg !1376
  br i1 %12, label %19, label %13, !dbg !1376

; <label>:13                                      ; preds = %7
  %14 = load %struct.pthread_cond_t** %2, align 8, !dbg !1376
  %15 = getelementptr inbounds %struct.pthread_cond_t* %14, i32 0, i32 1, !dbg !1376
  %16 = load i32* %15, align 4, !dbg !1376
  %17 = and i32 %16, 65536, !dbg !1376
  %18 = icmp ne i32 %17, 0, !dbg !1376
  br i1 %18, label %20, label %19, !dbg !1376

; <label>:19                                      ; preds = %13, %7
  store i32 22, i32* %1, !dbg !1377
  br label %89, !dbg !1377

; <label>:20                                      ; preds = %13
  %21 = load i32** %3, align 8, !dbg !1378
  %22 = icmp eq i32* %21, null, !dbg !1378
  br i1 %22, label %28, label %23, !dbg !1378

; <label>:23                                      ; preds = %20
  %24 = load i32** %3, align 8, !dbg !1378
  %25 = load i32* %24, align 4, !dbg !1378
  %26 = and i32 %25, 67108864, !dbg !1378
  %27 = icmp ne i32 %26, 0, !dbg !1378
  br i1 %27, label %29, label %28, !dbg !1378

; <label>:28                                      ; preds = %23, %20
  store i32 22, i32* %1, !dbg !1379
  br label %89, !dbg !1379

; <label>:29                                      ; preds = %23
  %30 = load i32** %3, align 8, !dbg !1381
  %31 = load i32* %30, align 4, !dbg !1381
  %32 = and i32 %31, 65535, !dbg !1381
  %33 = load i32* %gtid, align 4, !dbg !1381
  %34 = add nsw i32 %33, 1, !dbg !1381
  %35 = icmp ne i32 %32, %34, !dbg !1381
  br i1 %35, label %36, label %37, !dbg !1381

; <label>:36                                      ; preds = %29
  store i32 1, i32* %1, !dbg !1382
  br label %89, !dbg !1382

; <label>:37                                      ; preds = %29
  %38 = load %struct.pthread_cond_t** %2, align 8, !dbg !1384
  %39 = getelementptr inbounds %struct.pthread_cond_t* %38, i32 0, i32 0, !dbg !1384
  %40 = load i32** %39, align 8, !dbg !1384
  %41 = icmp eq i32* %40, null, !dbg !1384
  br i1 %41, label %48, label %42, !dbg !1384

; <label>:42                                      ; preds = %37
  %43 = load %struct.pthread_cond_t** %2, align 8, !dbg !1384
  %44 = getelementptr inbounds %struct.pthread_cond_t* %43, i32 0, i32 0, !dbg !1384
  %45 = load i32** %44, align 8, !dbg !1384
  %46 = load i32** %3, align 8, !dbg !1384
  %47 = icmp eq i32* %45, %46, !dbg !1384
  br label %48, !dbg !1384

; <label>:48                                      ; preds = %42, %37
  %49 = phi i1 [ true, %37 ], [ %47, %42 ]
  %50 = zext i1 %49 to i32, !dbg !1384
  call void @__divine_assert(i32 %50), !dbg !1384
  %51 = load i32** %3, align 8, !dbg !1385
  %52 = load %struct.pthread_cond_t** %2, align 8, !dbg !1385
  %53 = getelementptr inbounds %struct.pthread_cond_t* %52, i32 0, i32 0, !dbg !1385
  store i32* %51, i32** %53, align 8, !dbg !1385
  call void @llvm.dbg.declare(metadata !33, metadata !1386), !dbg !1387
  %54 = load i32* %ltid, align 4, !dbg !1388
  %55 = sext i32 %54 to i64, !dbg !1388
  %56 = load %struct.Thread*** @threads, align 8, !dbg !1388
  %57 = getelementptr inbounds %struct.Thread** %56, i64 %55, !dbg !1388
  %58 = load %struct.Thread** %57, align 8, !dbg !1388
  store %struct.Thread* %58, %struct.Thread** %thread, align 8, !dbg !1388
  %59 = load %struct.Thread** %thread, align 8, !dbg !1389
  %60 = getelementptr inbounds %struct.Thread* %59, i32 0, i32 5, !dbg !1389
  store i32 1, i32* %60, align 4, !dbg !1389
  %61 = load %struct.pthread_cond_t** %2, align 8, !dbg !1390
  %62 = load %struct.Thread** %thread, align 8, !dbg !1390
  %63 = getelementptr inbounds %struct.Thread* %62, i32 0, i32 6, !dbg !1390
  store %struct.pthread_cond_t* %61, %struct.pthread_cond_t** %63, align 8, !dbg !1390
  %64 = load %struct.pthread_cond_t** %2, align 8, !dbg !1391
  %65 = call i32 @_Z18_cond_adjust_countP14pthread_cond_ti(%struct.pthread_cond_t* %64, i32 1), !dbg !1391
  %66 = load i32** %3, align 8, !dbg !1392
  %67 = call i32 @pthread_mutex_unlock(i32* %66), !dbg !1392
  br label %68, !dbg !1393

; <label>:68                                      ; preds = %48
  br label %69, !dbg !1394

; <label>:69                                      ; preds = %80, %68
  %70 = load %struct.Thread** %thread, align 8, !dbg !1394
  %71 = getelementptr inbounds %struct.Thread* %70, i32 0, i32 5, !dbg !1394
  %72 = load i32* %71, align 4, !dbg !1394
  %73 = icmp ne i32 %72, 0, !dbg !1394
  br i1 %73, label %74, label %78, !dbg !1394

; <label>:74                                      ; preds = %69
  %75 = call i32 @_Z9_canceledv(), !dbg !1394
  %76 = icmp ne i32 %75, 0, !dbg !1394
  %77 = xor i1 %76, true, !dbg !1394
  br label %78

; <label>:78                                      ; preds = %74, %69
  %79 = phi i1 [ false, %69 ], [ %77, %74 ]
  br i1 %79, label %80, label %81

; <label>:80                                      ; preds = %78
  call void @__divine_interrupt_unmask(), !dbg !1396
  call void @__divine_interrupt_mask(), !dbg !1396
  br label %69, !dbg !1396

; <label>:81                                      ; preds = %78
  %82 = call i32 @_Z9_canceledv(), !dbg !1396
  %83 = icmp ne i32 %82, 0, !dbg !1396
  br i1 %83, label %84, label %85, !dbg !1396

; <label>:84                                      ; preds = %81
  call void @_Z7_cancelv(), !dbg !1396
  br label %85, !dbg !1396

; <label>:85                                      ; preds = %84, %81
  br label %86, !dbg !1396

; <label>:86                                      ; preds = %85
  %87 = load i32** %3, align 8, !dbg !1398
  %88 = call i32 @pthread_mutex_lock(i32* %87), !dbg !1398
  store i32 0, i32* %1, !dbg !1399
  br label %89, !dbg !1399

; <label>:89                                      ; preds = %86, %36, %28, %19
  %90 = load i32* %1, !dbg !1400
  ret i32 %90, !dbg !1400
}

define i32 @pthread_cond_timedwait(%struct.pthread_cond_t*, i32*, %struct.timespec*) nounwind uwtable noinline {
  %4 = alloca %struct.pthread_cond_t*, align 8
  %5 = alloca i32*, align 8
  %6 = alloca %struct.timespec*, align 8
  store %struct.pthread_cond_t* %0, %struct.pthread_cond_t** %4, align 8
  store i32* %1, i32** %5, align 8
  store %struct.timespec* %2, %struct.timespec** %6, align 8
  ret i32 0, !dbg !1401
}

define i32 @pthread_condattr_destroy(i32*) nounwind uwtable noinline {
  %2 = alloca i32*, align 8
  store i32* %0, i32** %2, align 8
  ret i32 0, !dbg !1403
}

define i32 @pthread_condattr_getclock(i32*, i32*) nounwind uwtable noinline {
  %3 = alloca i32*, align 8
  %4 = alloca i32*, align 8
  store i32* %0, i32** %3, align 8
  store i32* %1, i32** %4, align 8
  ret i32 0, !dbg !1405
}

define i32 @pthread_condattr_getpshared(i32*, i32*) nounwind uwtable noinline {
  %3 = alloca i32*, align 8
  %4 = alloca i32*, align 8
  store i32* %0, i32** %3, align 8
  store i32* %1, i32** %4, align 8
  ret i32 0, !dbg !1407
}

define i32 @pthread_condattr_init(i32*) nounwind uwtable noinline {
  %2 = alloca i32*, align 8
  store i32* %0, i32** %2, align 8
  ret i32 0, !dbg !1409
}

define i32 @pthread_condattr_setclock(i32*, i32) nounwind uwtable noinline {
  %3 = alloca i32*, align 8
  %4 = alloca i32, align 4
  store i32* %0, i32** %3, align 8
  store i32 %1, i32* %4, align 4
  ret i32 0, !dbg !1411
}

define i32 @pthread_condattr_setpshared(i32*, i32) nounwind uwtable noinline {
  %3 = alloca i32*, align 8
  %4 = alloca i32, align 4
  store i32* %0, i32** %3, align 8
  store i32 %1, i32* %4, align 4
  ret i32 0, !dbg !1413
}

define i32 @pthread_once(i32* %once_control, void ()* %init_routine) uwtable noinline {
  %1 = alloca i32*, align 8
  %2 = alloca void ()*, align 8
  store i32* %once_control, i32** %1, align 8
  call void @llvm.dbg.declare(metadata !33, metadata !1415), !dbg !1416
  store void ()* %init_routine, void ()** %2, align 8
  call void @llvm.dbg.declare(metadata !33, metadata !1417), !dbg !1418
  br label %3, !dbg !1419

; <label>:3                                       ; preds = %0
  call void @__divine_interrupt_mask(), !dbg !1421
  br label %4, !dbg !1421

; <label>:4                                       ; preds = %3
  call void @__divine_interrupt_unmask(), !dbg !1423
  call void @__divine_interrupt(), !dbg !1423
  call void @__divine_interrupt_mask(), !dbg !1423
  br label %5, !dbg !1423

; <label>:5                                       ; preds = %4
  call void @_Z11_initializev(), !dbg !1423
  br label %6, !dbg !1423

; <label>:6                                       ; preds = %5
  %7 = load i32** %1, align 8, !dbg !1425
  %8 = load i32* %7, align 4, !dbg !1425
  %9 = icmp ne i32 %8, 0, !dbg !1425
  br i1 %9, label %10, label %15, !dbg !1425

; <label>:10                                      ; preds = %6
  %11 = load i32** %1, align 8, !dbg !1426
  store i32 0, i32* %11, align 4, !dbg !1426
  br label %12, !dbg !1428

; <label>:12                                      ; preds = %10
  call void @__divine_interrupt_unmask(), !dbg !1429
  %13 = load void ()** %2, align 8, !dbg !1429
  call void %13(), !dbg !1429
  call void @__divine_interrupt_mask(), !dbg !1429
  br label %14, !dbg !1429

; <label>:14                                      ; preds = %12
  br label %15, !dbg !1431

; <label>:15                                      ; preds = %14, %6
  ret i32 0, !dbg !1432
}

define i32 @pthread_setcancelstate(i32 %state, i32* %oldstate) uwtable noinline {
  %1 = alloca i32, align 4
  %2 = alloca i32, align 4
  %3 = alloca i32*, align 8
  %ltid = alloca i32, align 4
  store i32 %state, i32* %2, align 4
  call void @llvm.dbg.declare(metadata !33, metadata !1433), !dbg !1434
  store i32* %oldstate, i32** %3, align 8
  call void @llvm.dbg.declare(metadata !33, metadata !1435), !dbg !1436
  br label %4, !dbg !1437

; <label>:4                                       ; preds = %0
  call void @__divine_interrupt_mask(), !dbg !1439
  br label %5, !dbg !1439

; <label>:5                                       ; preds = %4
  call void @__divine_interrupt_unmask(), !dbg !1441
  call void @__divine_interrupt(), !dbg !1441
  call void @__divine_interrupt_mask(), !dbg !1441
  br label %6, !dbg !1441

; <label>:6                                       ; preds = %5
  call void @_Z11_initializev(), !dbg !1441
  br label %7, !dbg !1441

; <label>:7                                       ; preds = %6
  %8 = load i32* %2, align 4, !dbg !1443
  %9 = and i32 %8, -2, !dbg !1443
  %10 = icmp ne i32 %9, 0, !dbg !1443
  br i1 %10, label %11, label %12, !dbg !1443

; <label>:11                                      ; preds = %7
  store i32 22, i32* %1, !dbg !1444
  br label %30, !dbg !1444

; <label>:12                                      ; preds = %7
  call void @llvm.dbg.declare(metadata !33, metadata !1445), !dbg !1446
  %13 = call i32 @__divine_get_tid(), !dbg !1447
  store i32 %13, i32* %ltid, align 4, !dbg !1447
  %14 = load i32* %ltid, align 4, !dbg !1448
  %15 = sext i32 %14 to i64, !dbg !1448
  %16 = load %struct.Thread*** @threads, align 8, !dbg !1448
  %17 = getelementptr inbounds %struct.Thread** %16, i64 %15, !dbg !1448
  %18 = load %struct.Thread** %17, align 8, !dbg !1448
  %19 = getelementptr inbounds %struct.Thread* %18, i32 0, i32 7, !dbg !1448
  %20 = load i32* %19, align 4, !dbg !1448
  %21 = load i32** %3, align 8, !dbg !1448
  store i32 %20, i32* %21, align 4, !dbg !1448
  %22 = load i32* %2, align 4, !dbg !1449
  %23 = and i32 %22, 1, !dbg !1449
  %24 = load i32* %ltid, align 4, !dbg !1449
  %25 = sext i32 %24 to i64, !dbg !1449
  %26 = load %struct.Thread*** @threads, align 8, !dbg !1449
  %27 = getelementptr inbounds %struct.Thread** %26, i64 %25, !dbg !1449
  %28 = load %struct.Thread** %27, align 8, !dbg !1449
  %29 = getelementptr inbounds %struct.Thread* %28, i32 0, i32 7, !dbg !1449
  store i32 %23, i32* %29, align 4, !dbg !1449
  store i32 0, i32* %1, !dbg !1450
  br label %30, !dbg !1450

; <label>:30                                      ; preds = %12, %11
  %31 = load i32* %1, !dbg !1451
  ret i32 %31, !dbg !1451
}

define i32 @pthread_setcanceltype(i32 %type, i32* %oldtype) uwtable noinline {
  %1 = alloca i32, align 4
  %2 = alloca i32, align 4
  %3 = alloca i32*, align 8
  %ltid = alloca i32, align 4
  store i32 %type, i32* %2, align 4
  call void @llvm.dbg.declare(metadata !33, metadata !1452), !dbg !1453
  store i32* %oldtype, i32** %3, align 8
  call void @llvm.dbg.declare(metadata !33, metadata !1454), !dbg !1455
  br label %4, !dbg !1456

; <label>:4                                       ; preds = %0
  call void @__divine_interrupt_mask(), !dbg !1458
  br label %5, !dbg !1458

; <label>:5                                       ; preds = %4
  call void @__divine_interrupt_unmask(), !dbg !1460
  call void @__divine_interrupt(), !dbg !1460
  call void @__divine_interrupt_mask(), !dbg !1460
  br label %6, !dbg !1460

; <label>:6                                       ; preds = %5
  call void @_Z11_initializev(), !dbg !1460
  br label %7, !dbg !1460

; <label>:7                                       ; preds = %6
  %8 = load i32* %2, align 4, !dbg !1462
  %9 = and i32 %8, -2, !dbg !1462
  %10 = icmp ne i32 %9, 0, !dbg !1462
  br i1 %10, label %11, label %12, !dbg !1462

; <label>:11                                      ; preds = %7
  store i32 22, i32* %1, !dbg !1463
  br label %30, !dbg !1463

; <label>:12                                      ; preds = %7
  call void @llvm.dbg.declare(metadata !33, metadata !1464), !dbg !1465
  %13 = call i32 @__divine_get_tid(), !dbg !1466
  store i32 %13, i32* %ltid, align 4, !dbg !1466
  %14 = load i32* %ltid, align 4, !dbg !1467
  %15 = sext i32 %14 to i64, !dbg !1467
  %16 = load %struct.Thread*** @threads, align 8, !dbg !1467
  %17 = getelementptr inbounds %struct.Thread** %16, i64 %15, !dbg !1467
  %18 = load %struct.Thread** %17, align 8, !dbg !1467
  %19 = getelementptr inbounds %struct.Thread* %18, i32 0, i32 8, !dbg !1467
  %20 = load i32* %19, align 4, !dbg !1467
  %21 = load i32** %3, align 8, !dbg !1467
  store i32 %20, i32* %21, align 4, !dbg !1467
  %22 = load i32* %2, align 4, !dbg !1468
  %23 = and i32 %22, 1, !dbg !1468
  %24 = load i32* %ltid, align 4, !dbg !1468
  %25 = sext i32 %24 to i64, !dbg !1468
  %26 = load %struct.Thread*** @threads, align 8, !dbg !1468
  %27 = getelementptr inbounds %struct.Thread** %26, i64 %25, !dbg !1468
  %28 = load %struct.Thread** %27, align 8, !dbg !1468
  %29 = getelementptr inbounds %struct.Thread* %28, i32 0, i32 8, !dbg !1468
  store i32 %23, i32* %29, align 4, !dbg !1468
  store i32 0, i32* %1, !dbg !1469
  br label %30, !dbg !1469

; <label>:30                                      ; preds = %12, %11
  %31 = load i32* %1, !dbg !1470
  ret i32 %31, !dbg !1470
}

define i32 @pthread_cancel(i32 %ptid) uwtable noinline {
  %1 = alloca i32, align 4
  %2 = alloca i32, align 4
  %ltid = alloca i32, align 4
  %gtid = alloca i32, align 4
  store i32 %ptid, i32* %2, align 4
  call void @llvm.dbg.declare(metadata !33, metadata !1471), !dbg !1472
  br label %3, !dbg !1473

; <label>:3                                       ; preds = %0
  call void @__divine_interrupt_mask(), !dbg !1475
  br label %4, !dbg !1475

; <label>:4                                       ; preds = %3
  call void @__divine_interrupt_unmask(), !dbg !1477
  call void @__divine_interrupt(), !dbg !1477
  call void @__divine_interrupt_mask(), !dbg !1477
  br label %5, !dbg !1477

; <label>:5                                       ; preds = %4
  call void @_Z11_initializev(), !dbg !1477
  br label %6, !dbg !1477

; <label>:6                                       ; preds = %5
  call void @llvm.dbg.declare(metadata !33, metadata !1479), !dbg !1480
  %7 = load i32* %2, align 4, !dbg !1481
  %8 = and i32 %7, 65535, !dbg !1481
  store i32 %8, i32* %ltid, align 4, !dbg !1481
  call void @llvm.dbg.declare(metadata !33, metadata !1482), !dbg !1483
  %9 = load i32* %2, align 4, !dbg !1484
  %10 = ashr i32 %9, 16, !dbg !1484
  store i32 %10, i32* %gtid, align 4, !dbg !1484
  %11 = load i32* %ltid, align 4, !dbg !1485
  %12 = icmp slt i32 %11, 0, !dbg !1485
  br i1 %12, label %24, label %13, !dbg !1485

; <label>:13                                      ; preds = %6
  %14 = load i32* %ltid, align 4, !dbg !1485
  %15 = load i32* @alloc_pslots, align 4, !dbg !1485
  %16 = icmp uge i32 %14, %15, !dbg !1485
  br i1 %16, label %24, label %17, !dbg !1485

; <label>:17                                      ; preds = %13
  %18 = load i32* %gtid, align 4, !dbg !1485
  %19 = icmp slt i32 %18, 0, !dbg !1485
  br i1 %19, label %24, label %20, !dbg !1485

; <label>:20                                      ; preds = %17
  %21 = load i32* %gtid, align 4, !dbg !1485
  %22 = load i32* @thread_counter, align 4, !dbg !1485
  %23 = icmp uge i32 %21, %22, !dbg !1485
  br i1 %23, label %24, label %25, !dbg !1485

; <label>:24                                      ; preds = %20, %17, %13, %6
  store i32 3, i32* %1, !dbg !1486
  br label %48, !dbg !1486

; <label>:25                                      ; preds = %20
  %26 = load i32* %gtid, align 4, !dbg !1487
  %27 = load i32* %ltid, align 4, !dbg !1488
  %28 = call i32 @_Z9_get_gtidi(i32 %27), !dbg !1488
  %29 = icmp ne i32 %26, %28, !dbg !1488
  br i1 %29, label %30, label %31, !dbg !1488

; <label>:30                                      ; preds = %25
  store i32 3, i32* %1, !dbg !1489
  br label %48, !dbg !1489

; <label>:31                                      ; preds = %25
  %32 = load i32* %ltid, align 4, !dbg !1490
  %33 = sext i32 %32 to i64, !dbg !1490
  %34 = load %struct.Thread*** @threads, align 8, !dbg !1490
  %35 = getelementptr inbounds %struct.Thread** %34, i64 %33, !dbg !1490
  %36 = load %struct.Thread** %35, align 8, !dbg !1490
  %37 = getelementptr inbounds %struct.Thread* %36, i32 0, i32 7, !dbg !1490
  %38 = load i32* %37, align 4, !dbg !1490
  %39 = icmp eq i32 %38, 0, !dbg !1490
  br i1 %39, label %40, label %47, !dbg !1490

; <label>:40                                      ; preds = %31
  %41 = load i32* %ltid, align 4, !dbg !1491
  %42 = sext i32 %41 to i64, !dbg !1491
  %43 = load %struct.Thread*** @threads, align 8, !dbg !1491
  %44 = getelementptr inbounds %struct.Thread** %43, i64 %42, !dbg !1491
  %45 = load %struct.Thread** %44, align 8, !dbg !1491
  %46 = getelementptr inbounds %struct.Thread* %45, i32 0, i32 9, !dbg !1491
  store i32 1, i32* %46, align 4, !dbg !1491
  br label %47, !dbg !1491

; <label>:47                                      ; preds = %40, %31
  store i32 0, i32* %1, !dbg !1492
  br label %48, !dbg !1492

; <label>:48                                      ; preds = %47, %30, %24
  %49 = load i32* %1, !dbg !1493
  ret i32 %49, !dbg !1493
}

define void @pthread_testcancel() uwtable noinline {
  br label %1, !dbg !1494

; <label>:1                                       ; preds = %0
  call void @__divine_interrupt_mask(), !dbg !1496
  br label %2, !dbg !1496

; <label>:2                                       ; preds = %1
  call void @__divine_interrupt_unmask(), !dbg !1498
  call void @__divine_interrupt(), !dbg !1498
  call void @__divine_interrupt_mask(), !dbg !1498
  br label %3, !dbg !1498

; <label>:3                                       ; preds = %2
  call void @_Z11_initializev(), !dbg !1498
  br label %4, !dbg !1498

; <label>:4                                       ; preds = %3
  %5 = call i32 @_Z9_canceledv(), !dbg !1500
  %6 = icmp ne i32 %5, 0, !dbg !1500
  br i1 %6, label %7, label %8, !dbg !1500

; <label>:7                                       ; preds = %4
  call void @_Z7_cancelv(), !dbg !1501
  br label %8, !dbg !1501

; <label>:8                                       ; preds = %7, %4
  ret void, !dbg !1502
}

define void @pthread_cleanup_push(void (i8*)* %routine, i8* %arg) uwtable noinline {
  %1 = alloca void (i8*)*, align 8
  %2 = alloca i8*, align 8
  %ltid = alloca i32, align 4
  %handler = alloca %struct.CleanupHandler*, align 8
  store void (i8*)* %routine, void (i8*)** %1, align 8
  call void @llvm.dbg.declare(metadata !33, metadata !1503), !dbg !1504
  store i8* %arg, i8** %2, align 8
  call void @llvm.dbg.declare(metadata !33, metadata !1505), !dbg !1506
  br label %3, !dbg !1507

; <label>:3                                       ; preds = %0
  call void @__divine_interrupt_mask(), !dbg !1509
  br label %4, !dbg !1509

; <label>:4                                       ; preds = %3
  call void @__divine_interrupt_unmask(), !dbg !1511
  call void @__divine_interrupt(), !dbg !1511
  call void @__divine_interrupt_mask(), !dbg !1511
  br label %5, !dbg !1511

; <label>:5                                       ; preds = %4
  call void @_Z11_initializev(), !dbg !1511
  br label %6, !dbg !1511

; <label>:6                                       ; preds = %5
  %7 = load void (i8*)** %1, align 8, !dbg !1513
  %8 = icmp ne void (i8*)* %7, null, !dbg !1513
  %9 = zext i1 %8 to i32, !dbg !1513
  call void @__divine_assert(i32 %9), !dbg !1513
  call void @llvm.dbg.declare(metadata !33, metadata !1514), !dbg !1515
  %10 = call i32 @__divine_get_tid(), !dbg !1516
  store i32 %10, i32* %ltid, align 4, !dbg !1516
  call void @llvm.dbg.declare(metadata !33, metadata !1517), !dbg !1518
  %11 = call i8* @__divine_malloc(i64 24), !dbg !1519
  %12 = bitcast i8* %11 to %struct.CleanupHandler*, !dbg !1519
  store %struct.CleanupHandler* %12, %struct.CleanupHandler** %handler, align 8, !dbg !1519
  %13 = load void (i8*)** %1, align 8, !dbg !1520
  %14 = load %struct.CleanupHandler** %handler, align 8, !dbg !1520
  %15 = getelementptr inbounds %struct.CleanupHandler* %14, i32 0, i32 0, !dbg !1520
  store void (i8*)* %13, void (i8*)** %15, align 8, !dbg !1520
  %16 = load i8** %2, align 8, !dbg !1521
  %17 = load %struct.CleanupHandler** %handler, align 8, !dbg !1521
  %18 = getelementptr inbounds %struct.CleanupHandler* %17, i32 0, i32 1, !dbg !1521
  store i8* %16, i8** %18, align 8, !dbg !1521
  %19 = load i32* %ltid, align 4, !dbg !1522
  %20 = sext i32 %19 to i64, !dbg !1522
  %21 = load %struct.Thread*** @threads, align 8, !dbg !1522
  %22 = getelementptr inbounds %struct.Thread** %21, i64 %20, !dbg !1522
  %23 = load %struct.Thread** %22, align 8, !dbg !1522
  %24 = getelementptr inbounds %struct.Thread* %23, i32 0, i32 10, !dbg !1522
  %25 = load %struct.CleanupHandler** %24, align 8, !dbg !1522
  %26 = load %struct.CleanupHandler** %handler, align 8, !dbg !1522
  %27 = getelementptr inbounds %struct.CleanupHandler* %26, i32 0, i32 2, !dbg !1522
  store %struct.CleanupHandler* %25, %struct.CleanupHandler** %27, align 8, !dbg !1522
  %28 = load %struct.CleanupHandler** %handler, align 8, !dbg !1523
  %29 = load i32* %ltid, align 4, !dbg !1523
  %30 = sext i32 %29 to i64, !dbg !1523
  %31 = load %struct.Thread*** @threads, align 8, !dbg !1523
  %32 = getelementptr inbounds %struct.Thread** %31, i64 %30, !dbg !1523
  %33 = load %struct.Thread** %32, align 8, !dbg !1523
  %34 = getelementptr inbounds %struct.Thread* %33, i32 0, i32 10, !dbg !1523
  store %struct.CleanupHandler* %28, %struct.CleanupHandler** %34, align 8, !dbg !1523
  ret void, !dbg !1524
}

define void @pthread_cleanup_pop(i32 %execute) uwtable noinline {
  %1 = alloca i32, align 4
  %ltid = alloca i32, align 4
  %handler = alloca %struct.CleanupHandler*, align 8
  store i32 %execute, i32* %1, align 4
  call void @llvm.dbg.declare(metadata !33, metadata !1525), !dbg !1526
  br label %2, !dbg !1527

; <label>:2                                       ; preds = %0
  call void @__divine_interrupt_mask(), !dbg !1529
  br label %3, !dbg !1529

; <label>:3                                       ; preds = %2
  call void @__divine_interrupt_unmask(), !dbg !1531
  call void @__divine_interrupt(), !dbg !1531
  call void @__divine_interrupt_mask(), !dbg !1531
  br label %4, !dbg !1531

; <label>:4                                       ; preds = %3
  call void @_Z11_initializev(), !dbg !1531
  br label %5, !dbg !1531

; <label>:5                                       ; preds = %4
  call void @llvm.dbg.declare(metadata !33, metadata !1533), !dbg !1534
  %6 = call i32 @__divine_get_tid(), !dbg !1535
  store i32 %6, i32* %ltid, align 4, !dbg !1535
  call void @llvm.dbg.declare(metadata !33, metadata !1536), !dbg !1537
  %7 = load i32* %ltid, align 4, !dbg !1538
  %8 = sext i32 %7 to i64, !dbg !1538
  %9 = load %struct.Thread*** @threads, align 8, !dbg !1538
  %10 = getelementptr inbounds %struct.Thread** %9, i64 %8, !dbg !1538
  %11 = load %struct.Thread** %10, align 8, !dbg !1538
  %12 = getelementptr inbounds %struct.Thread* %11, i32 0, i32 10, !dbg !1538
  %13 = load %struct.CleanupHandler** %12, align 8, !dbg !1538
  store %struct.CleanupHandler* %13, %struct.CleanupHandler** %handler, align 8, !dbg !1538
  %14 = load %struct.CleanupHandler** %handler, align 8, !dbg !1539
  %15 = icmp ne %struct.CleanupHandler* %14, null, !dbg !1539
  br i1 %15, label %16, label %38, !dbg !1539

; <label>:16                                      ; preds = %5
  %17 = load %struct.CleanupHandler** %handler, align 8, !dbg !1540
  %18 = getelementptr inbounds %struct.CleanupHandler* %17, i32 0, i32 2, !dbg !1540
  %19 = load %struct.CleanupHandler** %18, align 8, !dbg !1540
  %20 = load i32* %ltid, align 4, !dbg !1540
  %21 = sext i32 %20 to i64, !dbg !1540
  %22 = load %struct.Thread*** @threads, align 8, !dbg !1540
  %23 = getelementptr inbounds %struct.Thread** %22, i64 %21, !dbg !1540
  %24 = load %struct.Thread** %23, align 8, !dbg !1540
  %25 = getelementptr inbounds %struct.Thread* %24, i32 0, i32 10, !dbg !1540
  store %struct.CleanupHandler* %19, %struct.CleanupHandler** %25, align 8, !dbg !1540
  %26 = load i32* %1, align 4, !dbg !1542
  %27 = icmp ne i32 %26, 0, !dbg !1542
  br i1 %27, label %28, label %35, !dbg !1542

; <label>:28                                      ; preds = %16
  %29 = load %struct.CleanupHandler** %handler, align 8, !dbg !1543
  %30 = getelementptr inbounds %struct.CleanupHandler* %29, i32 0, i32 0, !dbg !1543
  %31 = load void (i8*)** %30, align 8, !dbg !1543
  %32 = load %struct.CleanupHandler** %handler, align 8, !dbg !1543
  %33 = getelementptr inbounds %struct.CleanupHandler* %32, i32 0, i32 1, !dbg !1543
  %34 = load i8** %33, align 8, !dbg !1543
  call void %31(i8* %34), !dbg !1543
  br label %35, !dbg !1545

; <label>:35                                      ; preds = %28, %16
  %36 = load %struct.CleanupHandler** %handler, align 8, !dbg !1546
  %37 = bitcast %struct.CleanupHandler* %36 to i8*, !dbg !1546
  call void @__divine_free(i8* %37), !dbg !1546
  br label %38, !dbg !1547

; <label>:38                                      ; preds = %35, %5
  ret void, !dbg !1548
}

define i32 @_Z19_rlock_adjust_countP9_ReadLocki(%struct._ReadLock* %rlock, i32 %adj) nounwind uwtable {
  %1 = alloca i32, align 4
  %2 = alloca %struct._ReadLock*, align 8
  %3 = alloca i32, align 4
  %count = alloca i32, align 4
  store %struct._ReadLock* %rlock, %struct._ReadLock** %2, align 8
  call void @llvm.dbg.declare(metadata !33, metadata !1549), !dbg !1550
  store i32 %adj, i32* %3, align 4
  call void @llvm.dbg.declare(metadata !33, metadata !1551), !dbg !1552
  call void @llvm.dbg.declare(metadata !33, metadata !1553), !dbg !1555
  %4 = load %struct._ReadLock** %2, align 8, !dbg !1556
  %5 = getelementptr inbounds %struct._ReadLock* %4, i32 0, i32 0, !dbg !1556
  %6 = load i32* %5, align 4, !dbg !1556
  %7 = and i32 %6, 16711680, !dbg !1556
  %8 = ashr i32 %7, 16, !dbg !1556
  store i32 %8, i32* %count, align 4, !dbg !1556
  %9 = load i32* %3, align 4, !dbg !1557
  %10 = load i32* %count, align 4, !dbg !1557
  %11 = add nsw i32 %10, %9, !dbg !1557
  store i32 %11, i32* %count, align 4, !dbg !1557
  %12 = load i32* %count, align 4, !dbg !1558
  %13 = icmp sge i32 %12, 256, !dbg !1558
  br i1 %13, label %14, label %15, !dbg !1558

; <label>:14                                      ; preds = %0
  store i32 11, i32* %1, !dbg !1559
  br label %26, !dbg !1559

; <label>:15                                      ; preds = %0
  %16 = load %struct._ReadLock** %2, align 8, !dbg !1560
  %17 = getelementptr inbounds %struct._ReadLock* %16, i32 0, i32 0, !dbg !1560
  %18 = load i32* %17, align 4, !dbg !1560
  %19 = and i32 %18, -16711681, !dbg !1560
  store i32 %19, i32* %17, align 4, !dbg !1560
  %20 = load i32* %count, align 4, !dbg !1561
  %21 = shl i32 %20, 16, !dbg !1561
  %22 = load %struct._ReadLock** %2, align 8, !dbg !1561
  %23 = getelementptr inbounds %struct._ReadLock* %22, i32 0, i32 0, !dbg !1561
  %24 = load i32* %23, align 4, !dbg !1561
  %25 = or i32 %24, %21, !dbg !1561
  store i32 %25, i32* %23, align 4, !dbg !1561
  store i32 0, i32* %1, !dbg !1562
  br label %26, !dbg !1562

; <label>:26                                      ; preds = %15, %14
  %27 = load i32* %1, !dbg !1563
  ret i32 %27, !dbg !1563
}

define %struct._ReadLock* @_Z10_get_rlockP16pthread_rwlock_tiPP9_ReadLock(%struct.pthread_rwlock_t* %rwlock, i32 %gtid, %struct._ReadLock** %prev) nounwind uwtable {
  %1 = alloca %struct.pthread_rwlock_t*, align 8
  %2 = alloca i32, align 4
  %3 = alloca %struct._ReadLock**, align 8
  %rlock = alloca %struct._ReadLock*, align 8
  %_prev = alloca %struct._ReadLock*, align 8
  store %struct.pthread_rwlock_t* %rwlock, %struct.pthread_rwlock_t** %1, align 8
  call void @llvm.dbg.declare(metadata !33, metadata !1564), !dbg !1565
  store i32 %gtid, i32* %2, align 4
  call void @llvm.dbg.declare(metadata !33, metadata !1566), !dbg !1567
  store %struct._ReadLock** %prev, %struct._ReadLock*** %3, align 8
  call void @llvm.dbg.declare(metadata !33, metadata !1568), !dbg !1569
  call void @llvm.dbg.declare(metadata !33, metadata !1570), !dbg !1572
  %4 = load %struct.pthread_rwlock_t** %1, align 8, !dbg !1573
  %5 = getelementptr inbounds %struct.pthread_rwlock_t* %4, i32 0, i32 1, !dbg !1573
  %6 = load %struct._ReadLock** %5, align 8, !dbg !1573
  store %struct._ReadLock* %6, %struct._ReadLock** %rlock, align 8, !dbg !1573
  call void @llvm.dbg.declare(metadata !33, metadata !1574), !dbg !1575
  store %struct._ReadLock* null, %struct._ReadLock** %_prev, align 8, !dbg !1576
  br label %7, !dbg !1577

; <label>:7                                       ; preds = %20, %0
  %8 = load %struct._ReadLock** %rlock, align 8, !dbg !1577
  %9 = icmp ne %struct._ReadLock* %8, null, !dbg !1577
  br i1 %9, label %10, label %18, !dbg !1577

; <label>:10                                      ; preds = %7
  %11 = load %struct._ReadLock** %rlock, align 8, !dbg !1577
  %12 = getelementptr inbounds %struct._ReadLock* %11, i32 0, i32 0, !dbg !1577
  %13 = load i32* %12, align 4, !dbg !1577
  %14 = and i32 %13, 65535, !dbg !1577
  %15 = load i32* %2, align 4, !dbg !1577
  %16 = add nsw i32 %15, 1, !dbg !1577
  %17 = icmp ne i32 %14, %16, !dbg !1577
  br label %18

; <label>:18                                      ; preds = %10, %7
  %19 = phi i1 [ false, %7 ], [ %17, %10 ]
  br i1 %19, label %20, label %25

; <label>:20                                      ; preds = %18
  %21 = load %struct._ReadLock** %rlock, align 8, !dbg !1578
  store %struct._ReadLock* %21, %struct._ReadLock** %_prev, align 8, !dbg !1578
  %22 = load %struct._ReadLock** %rlock, align 8, !dbg !1580
  %23 = getelementptr inbounds %struct._ReadLock* %22, i32 0, i32 1, !dbg !1580
  %24 = load %struct._ReadLock** %23, align 8, !dbg !1580
  store %struct._ReadLock* %24, %struct._ReadLock** %rlock, align 8, !dbg !1580
  br label %7, !dbg !1581

; <label>:25                                      ; preds = %18
  %26 = load %struct._ReadLock** %rlock, align 8, !dbg !1582
  %27 = icmp ne %struct._ReadLock* %26, null, !dbg !1582
  br i1 %27, label %28, label %34, !dbg !1582

; <label>:28                                      ; preds = %25
  %29 = load %struct._ReadLock*** %3, align 8, !dbg !1582
  %30 = icmp ne %struct._ReadLock** %29, null, !dbg !1582
  br i1 %30, label %31, label %34, !dbg !1582

; <label>:31                                      ; preds = %28
  %32 = load %struct._ReadLock** %_prev, align 8, !dbg !1583
  %33 = load %struct._ReadLock*** %3, align 8, !dbg !1583
  store %struct._ReadLock* %32, %struct._ReadLock** %33, align 8, !dbg !1583
  br label %34, !dbg !1583

; <label>:34                                      ; preds = %31, %28, %25
  %35 = load %struct._ReadLock** %rlock, align 8, !dbg !1584
  ret %struct._ReadLock* %35, !dbg !1584
}

define %struct._ReadLock* @_Z13_create_rlockP16pthread_rwlock_ti(%struct.pthread_rwlock_t* %rwlock, i32 %gtid) uwtable {
  %1 = alloca %struct.pthread_rwlock_t*, align 8
  %2 = alloca i32, align 4
  %rlock = alloca %struct._ReadLock*, align 8
  store %struct.pthread_rwlock_t* %rwlock, %struct.pthread_rwlock_t** %1, align 8
  call void @llvm.dbg.declare(metadata !33, metadata !1585), !dbg !1586
  store i32 %gtid, i32* %2, align 4
  call void @llvm.dbg.declare(metadata !33, metadata !1587), !dbg !1588
  call void @llvm.dbg.declare(metadata !33, metadata !1589), !dbg !1591
  %3 = call i8* @__divine_malloc(i64 16), !dbg !1592
  %4 = bitcast i8* %3 to %struct._ReadLock*, !dbg !1592
  store %struct._ReadLock* %4, %struct._ReadLock** %rlock, align 8, !dbg !1592
  %5 = load i32* %2, align 4, !dbg !1593
  %6 = add nsw i32 %5, 1, !dbg !1593
  %7 = load %struct._ReadLock** %rlock, align 8, !dbg !1593
  %8 = getelementptr inbounds %struct._ReadLock* %7, i32 0, i32 0, !dbg !1593
  store i32 %6, i32* %8, align 4, !dbg !1593
  %9 = load %struct._ReadLock** %rlock, align 8, !dbg !1594
  %10 = getelementptr inbounds %struct._ReadLock* %9, i32 0, i32 0, !dbg !1594
  %11 = load i32* %10, align 4, !dbg !1594
  %12 = or i32 %11, 65536, !dbg !1594
  store i32 %12, i32* %10, align 4, !dbg !1594
  %13 = load %struct.pthread_rwlock_t** %1, align 8, !dbg !1595
  %14 = getelementptr inbounds %struct.pthread_rwlock_t* %13, i32 0, i32 1, !dbg !1595
  %15 = load %struct._ReadLock** %14, align 8, !dbg !1595
  %16 = load %struct._ReadLock** %rlock, align 8, !dbg !1595
  %17 = getelementptr inbounds %struct._ReadLock* %16, i32 0, i32 1, !dbg !1595
  store %struct._ReadLock* %15, %struct._ReadLock** %17, align 8, !dbg !1595
  %18 = load %struct._ReadLock** %rlock, align 8, !dbg !1596
  %19 = load %struct.pthread_rwlock_t** %1, align 8, !dbg !1596
  %20 = getelementptr inbounds %struct.pthread_rwlock_t* %19, i32 0, i32 1, !dbg !1596
  store %struct._ReadLock* %18, %struct._ReadLock** %20, align 8, !dbg !1596
  %21 = load %struct._ReadLock** %rlock, align 8, !dbg !1597
  ret %struct._ReadLock* %21, !dbg !1597
}

define i32 @_Z16_rwlock_can_lockP16pthread_rwlock_ti(%struct.pthread_rwlock_t* %rwlock, i32 %writer) nounwind uwtable {
  %1 = alloca %struct.pthread_rwlock_t*, align 8
  %2 = alloca i32, align 4
  store %struct.pthread_rwlock_t* %rwlock, %struct.pthread_rwlock_t** %1, align 8
  call void @llvm.dbg.declare(metadata !33, metadata !1598), !dbg !1599
  store i32 %writer, i32* %2, align 4
  call void @llvm.dbg.declare(metadata !33, metadata !1600), !dbg !1601
  %3 = load %struct.pthread_rwlock_t** %1, align 8, !dbg !1602
  %4 = getelementptr inbounds %struct.pthread_rwlock_t* %3, i32 0, i32 0, !dbg !1602
  %5 = load i32* %4, align 4, !dbg !1602
  %6 = and i32 %5, 65535, !dbg !1602
  %7 = icmp ne i32 %6, 0, !dbg !1602
  br i1 %7, label %19, label %8, !dbg !1602

; <label>:8                                       ; preds = %0
  %9 = load i32* %2, align 4, !dbg !1602
  %10 = icmp ne i32 %9, 0, !dbg !1602
  br i1 %10, label %11, label %16, !dbg !1602

; <label>:11                                      ; preds = %8
  %12 = load %struct.pthread_rwlock_t** %1, align 8, !dbg !1602
  %13 = getelementptr inbounds %struct.pthread_rwlock_t* %12, i32 0, i32 1, !dbg !1602
  %14 = load %struct._ReadLock** %13, align 8, !dbg !1602
  %15 = icmp ne %struct._ReadLock* %14, null, !dbg !1602
  br label %16

; <label>:16                                      ; preds = %11, %8
  %17 = phi i1 [ false, %8 ], [ %15, %11 ]
  %18 = xor i1 %17, true
  br label %19

; <label>:19                                      ; preds = %16, %0
  %20 = phi i1 [ false, %0 ], [ %18, %16 ]
  %21 = zext i1 %20 to i32
  ret i32 %21, !dbg !1604
}

define i32 @_Z12_rwlock_lockP16pthread_rwlock_tii(%struct.pthread_rwlock_t* %rwlock, i32 %wait, i32 %writer) uwtable {
  %1 = alloca i32, align 4
  %2 = alloca %struct.pthread_rwlock_t*, align 8
  %3 = alloca i32, align 4
  %4 = alloca i32, align 4
  %gtid = alloca i32, align 4
  %rlock = alloca %struct._ReadLock*, align 8
  %err = alloca i32, align 4
  store %struct.pthread_rwlock_t* %rwlock, %struct.pthread_rwlock_t** %2, align 8
  call void @llvm.dbg.declare(metadata !33, metadata !1605), !dbg !1606
  store i32 %wait, i32* %3, align 4
  call void @llvm.dbg.declare(metadata !33, metadata !1607), !dbg !1608
  store i32 %writer, i32* %4, align 4
  call void @llvm.dbg.declare(metadata !33, metadata !1609), !dbg !1610
  call void @llvm.dbg.declare(metadata !33, metadata !1611), !dbg !1613
  %5 = call i32 @__divine_get_tid(), !dbg !1614
  %6 = call i32 @_Z9_get_gtidi(i32 %5), !dbg !1614
  store i32 %6, i32* %gtid, align 4, !dbg !1614
  %7 = load %struct.pthread_rwlock_t** %2, align 8, !dbg !1615
  %8 = icmp eq %struct.pthread_rwlock_t* %7, null, !dbg !1615
  br i1 %8, label %15, label %9, !dbg !1615

; <label>:9                                       ; preds = %0
  %10 = load %struct.pthread_rwlock_t** %2, align 8, !dbg !1615
  %11 = getelementptr inbounds %struct.pthread_rwlock_t* %10, i32 0, i32 0, !dbg !1615
  %12 = load i32* %11, align 4, !dbg !1615
  %13 = and i32 %12, 131072, !dbg !1615
  %14 = icmp ne i32 %13, 0, !dbg !1615
  br i1 %14, label %16, label %15, !dbg !1615

; <label>:15                                      ; preds = %9, %0
  store i32 22, i32* %1, !dbg !1616
  br label %99, !dbg !1616

; <label>:16                                      ; preds = %9
  %17 = load %struct.pthread_rwlock_t** %2, align 8, !dbg !1618
  %18 = getelementptr inbounds %struct.pthread_rwlock_t* %17, i32 0, i32 0, !dbg !1618
  %19 = load i32* %18, align 4, !dbg !1618
  %20 = and i32 %19, 65535, !dbg !1618
  %21 = load i32* %gtid, align 4, !dbg !1618
  %22 = add nsw i32 %21, 1, !dbg !1618
  %23 = icmp eq i32 %20, %22, !dbg !1618
  br i1 %23, label %24, label %25, !dbg !1618

; <label>:24                                      ; preds = %16
  store i32 35, i32* %1, !dbg !1619
  br label %99, !dbg !1619

; <label>:25                                      ; preds = %16
  call void @llvm.dbg.declare(metadata !33, metadata !1620), !dbg !1621
  %26 = load %struct.pthread_rwlock_t** %2, align 8, !dbg !1622
  %27 = load i32* %gtid, align 4, !dbg !1622
  %28 = call %struct._ReadLock* @_Z10_get_rlockP16pthread_rwlock_tiPP9_ReadLock(%struct.pthread_rwlock_t* %26, i32 %27, %struct._ReadLock** null), !dbg !1622
  store %struct._ReadLock* %28, %struct._ReadLock** %rlock, align 8, !dbg !1622
  %29 = load %struct._ReadLock** %rlock, align 8, !dbg !1623
  %30 = icmp ne %struct._ReadLock* %29, null, !dbg !1623
  br i1 %30, label %31, label %37, !dbg !1623

; <label>:31                                      ; preds = %25
  %32 = load %struct._ReadLock** %rlock, align 8, !dbg !1623
  %33 = getelementptr inbounds %struct._ReadLock* %32, i32 0, i32 0, !dbg !1623
  %34 = load i32* %33, align 4, !dbg !1623
  %35 = and i32 %34, 16711680, !dbg !1623
  %36 = icmp ne i32 %35, 0, !dbg !1623
  br label %37, !dbg !1623

; <label>:37                                      ; preds = %31, %25
  %38 = phi i1 [ true, %25 ], [ %36, %31 ]
  %39 = zext i1 %38 to i32, !dbg !1623
  call void @__divine_assert(i32 %39), !dbg !1623
  %40 = load i32* %4, align 4, !dbg !1624
  %41 = icmp ne i32 %40, 0, !dbg !1624
  br i1 %41, label %42, label %46, !dbg !1624

; <label>:42                                      ; preds = %37
  %43 = load %struct._ReadLock** %rlock, align 8, !dbg !1624
  %44 = icmp ne %struct._ReadLock* %43, null, !dbg !1624
  br i1 %44, label %45, label %46, !dbg !1624

; <label>:45                                      ; preds = %42
  store i32 35, i32* %1, !dbg !1625
  br label %99, !dbg !1625

; <label>:46                                      ; preds = %42, %37
  %47 = load %struct.pthread_rwlock_t** %2, align 8, !dbg !1626
  %48 = load i32* %4, align 4, !dbg !1626
  %49 = call i32 @_Z16_rwlock_can_lockP16pthread_rwlock_ti(%struct.pthread_rwlock_t* %47, i32 %48), !dbg !1626
  %50 = icmp ne i32 %49, 0, !dbg !1626
  br i1 %50, label %56, label %51, !dbg !1626

; <label>:51                                      ; preds = %46
  %52 = load i32* %3, align 4, !dbg !1627
  %53 = icmp ne i32 %52, 0, !dbg !1627
  br i1 %53, label %55, label %54, !dbg !1627

; <label>:54                                      ; preds = %51
  store i32 16, i32* %1, !dbg !1629
  br label %99, !dbg !1629

; <label>:55                                      ; preds = %51
  br label %56, !dbg !1630

; <label>:56                                      ; preds = %55, %46
  br label %57, !dbg !1631

; <label>:57                                      ; preds = %56
  br label %58, !dbg !1632

; <label>:58                                      ; preds = %66, %57
  %59 = load %struct.pthread_rwlock_t** %2, align 8, !dbg !1632
  %60 = load i32* %4, align 4, !dbg !1632
  %61 = call i32 @_Z16_rwlock_can_lockP16pthread_rwlock_ti(%struct.pthread_rwlock_t* %59, i32 %60), !dbg !1632
  %62 = icmp ne i32 %61, 0, !dbg !1632
  br i1 %62, label %64, label %63, !dbg !1632

; <label>:63                                      ; preds = %58
  br label %64

; <label>:64                                      ; preds = %63, %58
  %65 = phi i1 [ false, %58 ], [ true, %63 ]
  br i1 %65, label %66, label %67

; <label>:66                                      ; preds = %64
  call void @__divine_interrupt_unmask(), !dbg !1634
  call void @__divine_interrupt_mask(), !dbg !1634
  br label %58, !dbg !1634

; <label>:67                                      ; preds = %64
  br label %68, !dbg !1634

; <label>:68                                      ; preds = %67
  %69 = load i32* %4, align 4, !dbg !1636
  %70 = icmp ne i32 %69, 0, !dbg !1636
  br i1 %70, label %71, label %82, !dbg !1636

; <label>:71                                      ; preds = %68
  %72 = load %struct.pthread_rwlock_t** %2, align 8, !dbg !1637
  %73 = getelementptr inbounds %struct.pthread_rwlock_t* %72, i32 0, i32 0, !dbg !1637
  %74 = load i32* %73, align 4, !dbg !1637
  %75 = and i32 %74, -65536, !dbg !1637
  store i32 %75, i32* %73, align 4, !dbg !1637
  %76 = load i32* %gtid, align 4, !dbg !1639
  %77 = add nsw i32 %76, 1, !dbg !1639
  %78 = load %struct.pthread_rwlock_t** %2, align 8, !dbg !1639
  %79 = getelementptr inbounds %struct.pthread_rwlock_t* %78, i32 0, i32 0, !dbg !1639
  %80 = load i32* %79, align 4, !dbg !1639
  %81 = or i32 %80, %77, !dbg !1639
  store i32 %81, i32* %79, align 4, !dbg !1639
  br label %98, !dbg !1640

; <label>:82                                      ; preds = %68
  %83 = load %struct._ReadLock** %rlock, align 8, !dbg !1641
  %84 = icmp ne %struct._ReadLock* %83, null, !dbg !1641
  br i1 %84, label %89, label %85, !dbg !1641

; <label>:85                                      ; preds = %82
  %86 = load %struct.pthread_rwlock_t** %2, align 8, !dbg !1643
  %87 = load i32* %gtid, align 4, !dbg !1643
  %88 = call %struct._ReadLock* @_Z13_create_rlockP16pthread_rwlock_ti(%struct.pthread_rwlock_t* %86, i32 %87), !dbg !1643
  store %struct._ReadLock* %88, %struct._ReadLock** %rlock, align 8, !dbg !1643
  br label %97, !dbg !1643

; <label>:89                                      ; preds = %82
  call void @llvm.dbg.declare(metadata !33, metadata !1644), !dbg !1646
  %90 = load %struct._ReadLock** %rlock, align 8, !dbg !1647
  %91 = call i32 @_Z19_rlock_adjust_countP9_ReadLocki(%struct._ReadLock* %90, i32 1), !dbg !1647
  store i32 %91, i32* %err, align 4, !dbg !1647
  %92 = load i32* %err, align 4, !dbg !1648
  %93 = icmp ne i32 %92, 0, !dbg !1648
  br i1 %93, label %94, label %96, !dbg !1648

; <label>:94                                      ; preds = %89
  %95 = load i32* %err, align 4, !dbg !1649
  store i32 %95, i32* %1, !dbg !1649
  br label %99, !dbg !1649

; <label>:96                                      ; preds = %89
  br label %97

; <label>:97                                      ; preds = %96, %85
  br label %98

; <label>:98                                      ; preds = %97, %71
  store i32 0, i32* %1, !dbg !1650
  br label %99, !dbg !1650

; <label>:99                                      ; preds = %98, %94, %54, %45, %24, %15
  %100 = load i32* %1, !dbg !1651
  ret i32 %100, !dbg !1651
}

define i32 @pthread_rwlock_destroy(%struct.pthread_rwlock_t* %rwlock) uwtable noinline {
  %1 = alloca i32, align 4
  %2 = alloca %struct.pthread_rwlock_t*, align 8
  store %struct.pthread_rwlock_t* %rwlock, %struct.pthread_rwlock_t** %2, align 8
  call void @llvm.dbg.declare(metadata !33, metadata !1652), !dbg !1653
  br label %3, !dbg !1654

; <label>:3                                       ; preds = %0
  call void @__divine_interrupt_mask(), !dbg !1656
  br label %4, !dbg !1656

; <label>:4                                       ; preds = %3
  call void @__divine_interrupt_unmask(), !dbg !1658
  call void @__divine_interrupt(), !dbg !1658
  call void @__divine_interrupt_mask(), !dbg !1658
  br label %5, !dbg !1658

; <label>:5                                       ; preds = %4
  call void @_Z11_initializev(), !dbg !1658
  br label %6, !dbg !1658

; <label>:6                                       ; preds = %5
  %7 = load %struct.pthread_rwlock_t** %2, align 8, !dbg !1660
  %8 = icmp eq %struct.pthread_rwlock_t* %7, null, !dbg !1660
  br i1 %8, label %9, label %10, !dbg !1660

; <label>:9                                       ; preds = %6
  store i32 22, i32* %1, !dbg !1661
  br label %27, !dbg !1661

; <label>:10                                      ; preds = %6
  %11 = load %struct.pthread_rwlock_t** %2, align 8, !dbg !1662
  %12 = getelementptr inbounds %struct.pthread_rwlock_t* %11, i32 0, i32 0, !dbg !1662
  %13 = load i32* %12, align 4, !dbg !1662
  %14 = and i32 %13, 65535, !dbg !1662
  %15 = icmp ne i32 %14, 0, !dbg !1662
  br i1 %15, label %21, label %16, !dbg !1662

; <label>:16                                      ; preds = %10
  %17 = load %struct.pthread_rwlock_t** %2, align 8, !dbg !1662
  %18 = getelementptr inbounds %struct.pthread_rwlock_t* %17, i32 0, i32 1, !dbg !1662
  %19 = load %struct._ReadLock** %18, align 8, !dbg !1662
  %20 = icmp ne %struct._ReadLock* %19, null, !dbg !1662
  br i1 %20, label %21, label %22, !dbg !1662

; <label>:21                                      ; preds = %16, %10
  store i32 16, i32* %1, !dbg !1663
  br label %27, !dbg !1663

; <label>:22                                      ; preds = %16
  %23 = load %struct.pthread_rwlock_t** %2, align 8, !dbg !1665
  %24 = getelementptr inbounds %struct.pthread_rwlock_t* %23, i32 0, i32 0, !dbg !1665
  %25 = load i32* %24, align 4, !dbg !1665
  %26 = and i32 %25, -131073, !dbg !1665
  store i32 %26, i32* %24, align 4, !dbg !1665
  store i32 0, i32* %1, !dbg !1666
  br label %27, !dbg !1666

; <label>:27                                      ; preds = %22, %21, %9
  %28 = load i32* %1, !dbg !1667
  ret i32 %28, !dbg !1667
}

define i32 @pthread_rwlock_init(%struct.pthread_rwlock_t* %rwlock, i32* %attr) uwtable noinline {
  %1 = alloca i32, align 4
  %2 = alloca %struct.pthread_rwlock_t*, align 8
  %3 = alloca i32*, align 8
  store %struct.pthread_rwlock_t* %rwlock, %struct.pthread_rwlock_t** %2, align 8
  call void @llvm.dbg.declare(metadata !33, metadata !1668), !dbg !1669
  store i32* %attr, i32** %3, align 8
  call void @llvm.dbg.declare(metadata !33, metadata !1670), !dbg !1671
  br label %4, !dbg !1672

; <label>:4                                       ; preds = %0
  call void @__divine_interrupt_mask(), !dbg !1674
  br label %5, !dbg !1674

; <label>:5                                       ; preds = %4
  call void @__divine_interrupt_unmask(), !dbg !1676
  call void @__divine_interrupt(), !dbg !1676
  call void @__divine_interrupt_mask(), !dbg !1676
  br label %6, !dbg !1676

; <label>:6                                       ; preds = %5
  call void @_Z11_initializev(), !dbg !1676
  br label %7, !dbg !1676

; <label>:7                                       ; preds = %6
  %8 = load %struct.pthread_rwlock_t** %2, align 8, !dbg !1678
  %9 = icmp eq %struct.pthread_rwlock_t* %8, null, !dbg !1678
  br i1 %9, label %10, label %11, !dbg !1678

; <label>:10                                      ; preds = %7
  store i32 22, i32* %1, !dbg !1679
  br label %38, !dbg !1679

; <label>:11                                      ; preds = %7
  %12 = load %struct.pthread_rwlock_t** %2, align 8, !dbg !1680
  %13 = getelementptr inbounds %struct.pthread_rwlock_t* %12, i32 0, i32 0, !dbg !1680
  %14 = load i32* %13, align 4, !dbg !1680
  %15 = and i32 %14, 131072, !dbg !1680
  %16 = icmp ne i32 %15, 0, !dbg !1680
  br i1 %16, label %17, label %18, !dbg !1680

; <label>:17                                      ; preds = %11
  store i32 16, i32* %1, !dbg !1681
  br label %38, !dbg !1681

; <label>:18                                      ; preds = %11
  %19 = load i32** %3, align 8, !dbg !1683
  %20 = icmp ne i32* %19, null, !dbg !1683
  br i1 %20, label %21, label %28, !dbg !1683

; <label>:21                                      ; preds = %18
  %22 = load i32** %3, align 8, !dbg !1684
  %23 = load i32* %22, align 4, !dbg !1684
  %24 = and i32 %23, 1, !dbg !1684
  %25 = shl i32 %24, 16, !dbg !1684
  %26 = load %struct.pthread_rwlock_t** %2, align 8, !dbg !1684
  %27 = getelementptr inbounds %struct.pthread_rwlock_t* %26, i32 0, i32 0, !dbg !1684
  store i32 %25, i32* %27, align 4, !dbg !1684
  br label %31, !dbg !1684

; <label>:28                                      ; preds = %18
  %29 = load %struct.pthread_rwlock_t** %2, align 8, !dbg !1685
  %30 = getelementptr inbounds %struct.pthread_rwlock_t* %29, i32 0, i32 0, !dbg !1685
  store i32 0, i32* %30, align 4, !dbg !1685
  br label %31

; <label>:31                                      ; preds = %28, %21
  %32 = load %struct.pthread_rwlock_t** %2, align 8, !dbg !1686
  %33 = getelementptr inbounds %struct.pthread_rwlock_t* %32, i32 0, i32 0, !dbg !1686
  %34 = load i32* %33, align 4, !dbg !1686
  %35 = or i32 %34, 131072, !dbg !1686
  store i32 %35, i32* %33, align 4, !dbg !1686
  %36 = load %struct.pthread_rwlock_t** %2, align 8, !dbg !1687
  %37 = getelementptr inbounds %struct.pthread_rwlock_t* %36, i32 0, i32 1, !dbg !1687
  store %struct._ReadLock* null, %struct._ReadLock** %37, align 8, !dbg !1687
  store i32 0, i32* %1, !dbg !1688
  br label %38, !dbg !1688

; <label>:38                                      ; preds = %31, %17, %10
  %39 = load i32* %1, !dbg !1689
  ret i32 %39, !dbg !1689
}

define i32 @pthread_rwlock_rdlock(%struct.pthread_rwlock_t* %rwlock) uwtable noinline {
  %1 = alloca %struct.pthread_rwlock_t*, align 8
  store %struct.pthread_rwlock_t* %rwlock, %struct.pthread_rwlock_t** %1, align 8
  call void @llvm.dbg.declare(metadata !33, metadata !1690), !dbg !1691
  br label %2, !dbg !1692

; <label>:2                                       ; preds = %0
  call void @__divine_interrupt_mask(), !dbg !1694
  br label %3, !dbg !1694

; <label>:3                                       ; preds = %2
  call void @__divine_interrupt_unmask(), !dbg !1696
  call void @__divine_interrupt(), !dbg !1696
  call void @__divine_interrupt_mask(), !dbg !1696
  br label %4, !dbg !1696

; <label>:4                                       ; preds = %3
  call void @_Z11_initializev(), !dbg !1696
  br label %5, !dbg !1696

; <label>:5                                       ; preds = %4
  %6 = load %struct.pthread_rwlock_t** %1, align 8, !dbg !1698
  %7 = call i32 @_Z12_rwlock_lockP16pthread_rwlock_tii(%struct.pthread_rwlock_t* %6, i32 1, i32 0), !dbg !1698
  ret i32 %7, !dbg !1698
}

define i32 @pthread_rwlock_wrlock(%struct.pthread_rwlock_t* %rwlock) uwtable noinline {
  %1 = alloca %struct.pthread_rwlock_t*, align 8
  store %struct.pthread_rwlock_t* %rwlock, %struct.pthread_rwlock_t** %1, align 8
  call void @llvm.dbg.declare(metadata !33, metadata !1699), !dbg !1700
  br label %2, !dbg !1701

; <label>:2                                       ; preds = %0
  call void @__divine_interrupt_mask(), !dbg !1703
  br label %3, !dbg !1703

; <label>:3                                       ; preds = %2
  call void @__divine_interrupt_unmask(), !dbg !1705
  call void @__divine_interrupt(), !dbg !1705
  call void @__divine_interrupt_mask(), !dbg !1705
  br label %4, !dbg !1705

; <label>:4                                       ; preds = %3
  call void @_Z11_initializev(), !dbg !1705
  br label %5, !dbg !1705

; <label>:5                                       ; preds = %4
  %6 = load %struct.pthread_rwlock_t** %1, align 8, !dbg !1707
  %7 = call i32 @_Z12_rwlock_lockP16pthread_rwlock_tii(%struct.pthread_rwlock_t* %6, i32 1, i32 1), !dbg !1707
  ret i32 %7, !dbg !1707
}

define i32 @pthread_rwlock_tryrdlock(%struct.pthread_rwlock_t* %rwlock) uwtable noinline {
  %1 = alloca %struct.pthread_rwlock_t*, align 8
  store %struct.pthread_rwlock_t* %rwlock, %struct.pthread_rwlock_t** %1, align 8
  call void @llvm.dbg.declare(metadata !33, metadata !1708), !dbg !1709
  br label %2, !dbg !1710

; <label>:2                                       ; preds = %0
  call void @__divine_interrupt_mask(), !dbg !1712
  br label %3, !dbg !1712

; <label>:3                                       ; preds = %2
  call void @__divine_interrupt_unmask(), !dbg !1714
  call void @__divine_interrupt(), !dbg !1714
  call void @__divine_interrupt_mask(), !dbg !1714
  br label %4, !dbg !1714

; <label>:4                                       ; preds = %3
  call void @_Z11_initializev(), !dbg !1714
  br label %5, !dbg !1714

; <label>:5                                       ; preds = %4
  %6 = load %struct.pthread_rwlock_t** %1, align 8, !dbg !1716
  %7 = call i32 @_Z12_rwlock_lockP16pthread_rwlock_tii(%struct.pthread_rwlock_t* %6, i32 0, i32 0), !dbg !1716
  ret i32 %7, !dbg !1716
}

define i32 @pthread_rwlock_trywrlock(%struct.pthread_rwlock_t* %rwlock) uwtable noinline {
  %1 = alloca %struct.pthread_rwlock_t*, align 8
  store %struct.pthread_rwlock_t* %rwlock, %struct.pthread_rwlock_t** %1, align 8
  call void @llvm.dbg.declare(metadata !33, metadata !1717), !dbg !1718
  br label %2, !dbg !1719

; <label>:2                                       ; preds = %0
  call void @__divine_interrupt_mask(), !dbg !1721
  br label %3, !dbg !1721

; <label>:3                                       ; preds = %2
  call void @__divine_interrupt_unmask(), !dbg !1723
  call void @__divine_interrupt(), !dbg !1723
  call void @__divine_interrupt_mask(), !dbg !1723
  br label %4, !dbg !1723

; <label>:4                                       ; preds = %3
  call void @_Z11_initializev(), !dbg !1723
  br label %5, !dbg !1723

; <label>:5                                       ; preds = %4
  %6 = load %struct.pthread_rwlock_t** %1, align 8, !dbg !1725
  %7 = call i32 @_Z12_rwlock_lockP16pthread_rwlock_tii(%struct.pthread_rwlock_t* %6, i32 0, i32 1), !dbg !1725
  ret i32 %7, !dbg !1725
}

define i32 @pthread_rwlock_unlock(%struct.pthread_rwlock_t* %rwlock) uwtable noinline {
  %1 = alloca i32, align 4
  %2 = alloca %struct.pthread_rwlock_t*, align 8
  %gtid = alloca i32, align 4
  %rlock = alloca %struct._ReadLock*, align 8
  %prev = alloca %struct._ReadLock*, align 8
  store %struct.pthread_rwlock_t* %rwlock, %struct.pthread_rwlock_t** %2, align 8
  call void @llvm.dbg.declare(metadata !33, metadata !1726), !dbg !1727
  br label %3, !dbg !1728

; <label>:3                                       ; preds = %0
  call void @__divine_interrupt_mask(), !dbg !1730
  br label %4, !dbg !1730

; <label>:4                                       ; preds = %3
  call void @__divine_interrupt_unmask(), !dbg !1732
  call void @__divine_interrupt(), !dbg !1732
  call void @__divine_interrupt_mask(), !dbg !1732
  br label %5, !dbg !1732

; <label>:5                                       ; preds = %4
  call void @_Z11_initializev(), !dbg !1732
  br label %6, !dbg !1732

; <label>:6                                       ; preds = %5
  call void @llvm.dbg.declare(metadata !33, metadata !1734), !dbg !1735
  %7 = call i32 @__divine_get_tid(), !dbg !1736
  %8 = call i32 @_Z9_get_gtidi(i32 %7), !dbg !1736
  store i32 %8, i32* %gtid, align 4, !dbg !1736
  %9 = load %struct.pthread_rwlock_t** %2, align 8, !dbg !1737
  %10 = icmp eq %struct.pthread_rwlock_t* %9, null, !dbg !1737
  br i1 %10, label %17, label %11, !dbg !1737

; <label>:11                                      ; preds = %6
  %12 = load %struct.pthread_rwlock_t** %2, align 8, !dbg !1737
  %13 = getelementptr inbounds %struct.pthread_rwlock_t* %12, i32 0, i32 0, !dbg !1737
  %14 = load i32* %13, align 4, !dbg !1737
  %15 = and i32 %14, 131072, !dbg !1737
  %16 = icmp ne i32 %15, 0, !dbg !1737
  br i1 %16, label %18, label %17, !dbg !1737

; <label>:17                                      ; preds = %11, %6
  store i32 22, i32* %1, !dbg !1738
  br label %89, !dbg !1738

; <label>:18                                      ; preds = %11
  call void @llvm.dbg.declare(metadata !33, metadata !1740), !dbg !1741
  call void @llvm.dbg.declare(metadata !33, metadata !1742), !dbg !1743
  %19 = load %struct.pthread_rwlock_t** %2, align 8, !dbg !1744
  %20 = load i32* %gtid, align 4, !dbg !1744
  %21 = call %struct._ReadLock* @_Z10_get_rlockP16pthread_rwlock_tiPP9_ReadLock(%struct.pthread_rwlock_t* %19, i32 %20, %struct._ReadLock** %prev), !dbg !1744
  store %struct._ReadLock* %21, %struct._ReadLock** %rlock, align 8, !dbg !1744
  %22 = load %struct._ReadLock** %rlock, align 8, !dbg !1745
  %23 = icmp ne %struct._ReadLock* %22, null, !dbg !1745
  br i1 %23, label %24, label %30, !dbg !1745

; <label>:24                                      ; preds = %18
  %25 = load %struct._ReadLock** %rlock, align 8, !dbg !1745
  %26 = getelementptr inbounds %struct._ReadLock* %25, i32 0, i32 0, !dbg !1745
  %27 = load i32* %26, align 4, !dbg !1745
  %28 = and i32 %27, 16711680, !dbg !1745
  %29 = icmp ne i32 %28, 0, !dbg !1745
  br label %30, !dbg !1745

; <label>:30                                      ; preds = %24, %18
  %31 = phi i1 [ true, %18 ], [ %29, %24 ]
  %32 = zext i1 %31 to i32, !dbg !1745
  call void @__divine_assert(i32 %32), !dbg !1745
  %33 = load %struct.pthread_rwlock_t** %2, align 8, !dbg !1746
  %34 = getelementptr inbounds %struct.pthread_rwlock_t* %33, i32 0, i32 0, !dbg !1746
  %35 = load i32* %34, align 4, !dbg !1746
  %36 = and i32 %35, 65535, !dbg !1746
  %37 = load i32* %gtid, align 4, !dbg !1746
  %38 = add nsw i32 %37, 1, !dbg !1746
  %39 = icmp ne i32 %36, %38, !dbg !1746
  br i1 %39, label %40, label %44, !dbg !1746

; <label>:40                                      ; preds = %30
  %41 = load %struct._ReadLock** %rlock, align 8, !dbg !1746
  %42 = icmp ne %struct._ReadLock* %41, null, !dbg !1746
  br i1 %42, label %44, label %43, !dbg !1746

; <label>:43                                      ; preds = %40
  store i32 1, i32* %1, !dbg !1747
  br label %89, !dbg !1747

; <label>:44                                      ; preds = %40, %30
  %45 = load %struct.pthread_rwlock_t** %2, align 8, !dbg !1749
  %46 = getelementptr inbounds %struct.pthread_rwlock_t* %45, i32 0, i32 0, !dbg !1749
  %47 = load i32* %46, align 4, !dbg !1749
  %48 = and i32 %47, 65535, !dbg !1749
  %49 = load i32* %gtid, align 4, !dbg !1749
  %50 = add nsw i32 %49, 1, !dbg !1749
  %51 = icmp eq i32 %48, %50, !dbg !1749
  br i1 %51, label %52, label %61, !dbg !1749

; <label>:52                                      ; preds = %44
  %53 = load %struct._ReadLock** %rlock, align 8, !dbg !1750
  %54 = icmp ne %struct._ReadLock* %53, null, !dbg !1750
  %55 = xor i1 %54, true, !dbg !1750
  %56 = zext i1 %55 to i32, !dbg !1750
  call void @__divine_assert(i32 %56), !dbg !1750
  %57 = load %struct.pthread_rwlock_t** %2, align 8, !dbg !1752
  %58 = getelementptr inbounds %struct.pthread_rwlock_t* %57, i32 0, i32 0, !dbg !1752
  %59 = load i32* %58, align 4, !dbg !1752
  %60 = and i32 %59, -65536, !dbg !1752
  store i32 %60, i32* %58, align 4, !dbg !1752
  br label %88, !dbg !1753

; <label>:61                                      ; preds = %44
  %62 = load %struct._ReadLock** %rlock, align 8, !dbg !1754
  %63 = call i32 @_Z19_rlock_adjust_countP9_ReadLocki(%struct._ReadLock* %62, i32 -1), !dbg !1754
  %64 = load %struct._ReadLock** %rlock, align 8, !dbg !1756
  %65 = getelementptr inbounds %struct._ReadLock* %64, i32 0, i32 0, !dbg !1756
  %66 = load i32* %65, align 4, !dbg !1756
  %67 = and i32 %66, 16711680, !dbg !1756
  %68 = icmp ne i32 %67, 0, !dbg !1756
  br i1 %68, label %87, label %69, !dbg !1756

; <label>:69                                      ; preds = %61
  %70 = load %struct._ReadLock** %prev, align 8, !dbg !1757
  %71 = icmp ne %struct._ReadLock* %70, null, !dbg !1757
  br i1 %71, label %72, label %78, !dbg !1757

; <label>:72                                      ; preds = %69
  %73 = load %struct._ReadLock** %rlock, align 8, !dbg !1759
  %74 = getelementptr inbounds %struct._ReadLock* %73, i32 0, i32 1, !dbg !1759
  %75 = load %struct._ReadLock** %74, align 8, !dbg !1759
  %76 = load %struct._ReadLock** %prev, align 8, !dbg !1759
  %77 = getelementptr inbounds %struct._ReadLock* %76, i32 0, i32 1, !dbg !1759
  store %struct._ReadLock* %75, %struct._ReadLock** %77, align 8, !dbg !1759
  br label %84, !dbg !1759

; <label>:78                                      ; preds = %69
  %79 = load %struct._ReadLock** %rlock, align 8, !dbg !1760
  %80 = getelementptr inbounds %struct._ReadLock* %79, i32 0, i32 1, !dbg !1760
  %81 = load %struct._ReadLock** %80, align 8, !dbg !1760
  %82 = load %struct.pthread_rwlock_t** %2, align 8, !dbg !1760
  %83 = getelementptr inbounds %struct.pthread_rwlock_t* %82, i32 0, i32 1, !dbg !1760
  store %struct._ReadLock* %81, %struct._ReadLock** %83, align 8, !dbg !1760
  br label %84

; <label>:84                                      ; preds = %78, %72
  %85 = load %struct._ReadLock** %rlock, align 8, !dbg !1761
  %86 = bitcast %struct._ReadLock* %85 to i8*, !dbg !1761
  call void @__divine_free(i8* %86), !dbg !1761
  br label %87, !dbg !1762

; <label>:87                                      ; preds = %84, %61
  br label %88

; <label>:88                                      ; preds = %87, %52
  store i32 0, i32* %1, !dbg !1763
  br label %89, !dbg !1763

; <label>:89                                      ; preds = %88, %43, %17
  %90 = load i32* %1, !dbg !1764
  ret i32 %90, !dbg !1764
}

define i32 @pthread_rwlockattr_destroy(i32* %attr) uwtable noinline {
  %1 = alloca i32, align 4
  %2 = alloca i32*, align 8
  store i32* %attr, i32** %2, align 8
  call void @llvm.dbg.declare(metadata !33, metadata !1765), !dbg !1766
  br label %3, !dbg !1767

; <label>:3                                       ; preds = %0
  call void @__divine_interrupt_mask(), !dbg !1769
  br label %4, !dbg !1769

; <label>:4                                       ; preds = %3
  call void @__divine_interrupt_unmask(), !dbg !1771
  call void @__divine_interrupt(), !dbg !1771
  call void @__divine_interrupt_mask(), !dbg !1771
  br label %5, !dbg !1771

; <label>:5                                       ; preds = %4
  call void @_Z11_initializev(), !dbg !1771
  br label %6, !dbg !1771

; <label>:6                                       ; preds = %5
  %7 = load i32** %2, align 8, !dbg !1773
  %8 = icmp eq i32* %7, null, !dbg !1773
  br i1 %8, label %9, label %10, !dbg !1773

; <label>:9                                       ; preds = %6
  store i32 22, i32* %1, !dbg !1774
  br label %12, !dbg !1774

; <label>:10                                      ; preds = %6
  %11 = load i32** %2, align 8, !dbg !1775
  store i32 0, i32* %11, align 4, !dbg !1775
  store i32 0, i32* %1, !dbg !1776
  br label %12, !dbg !1776

; <label>:12                                      ; preds = %10, %9
  %13 = load i32* %1, !dbg !1777
  ret i32 %13, !dbg !1777
}

define i32 @pthread_rwlockattr_getpshared(i32* %attr, i32* %pshared) uwtable noinline {
  %1 = alloca i32, align 4
  %2 = alloca i32*, align 8
  %3 = alloca i32*, align 8
  store i32* %attr, i32** %2, align 8
  call void @llvm.dbg.declare(metadata !33, metadata !1778), !dbg !1779
  store i32* %pshared, i32** %3, align 8
  call void @llvm.dbg.declare(metadata !33, metadata !1780), !dbg !1781
  br label %4, !dbg !1782

; <label>:4                                       ; preds = %0
  call void @__divine_interrupt_mask(), !dbg !1784
  br label %5, !dbg !1784

; <label>:5                                       ; preds = %4
  call void @__divine_interrupt_unmask(), !dbg !1786
  call void @__divine_interrupt(), !dbg !1786
  call void @__divine_interrupt_mask(), !dbg !1786
  br label %6, !dbg !1786

; <label>:6                                       ; preds = %5
  call void @_Z11_initializev(), !dbg !1786
  br label %7, !dbg !1786

; <label>:7                                       ; preds = %6
  %8 = load i32** %2, align 8, !dbg !1788
  %9 = icmp eq i32* %8, null, !dbg !1788
  br i1 %9, label %13, label %10, !dbg !1788

; <label>:10                                      ; preds = %7
  %11 = load i32** %3, align 8, !dbg !1788
  %12 = icmp eq i32* %11, null, !dbg !1788
  br i1 %12, label %13, label %14, !dbg !1788

; <label>:13                                      ; preds = %10, %7
  store i32 22, i32* %1, !dbg !1789
  br label %19, !dbg !1789

; <label>:14                                      ; preds = %10
  %15 = load i32** %2, align 8, !dbg !1790
  %16 = load i32* %15, align 4, !dbg !1790
  %17 = and i32 %16, 1, !dbg !1790
  %18 = load i32** %3, align 8, !dbg !1790
  store i32 %17, i32* %18, align 4, !dbg !1790
  store i32 0, i32* %1, !dbg !1791
  br label %19, !dbg !1791

; <label>:19                                      ; preds = %14, %13
  %20 = load i32* %1, !dbg !1792
  ret i32 %20, !dbg !1792
}

define i32 @pthread_rwlockattr_init(i32* %attr) uwtable noinline {
  %1 = alloca i32, align 4
  %2 = alloca i32*, align 8
  store i32* %attr, i32** %2, align 8
  call void @llvm.dbg.declare(metadata !33, metadata !1793), !dbg !1794
  br label %3, !dbg !1795

; <label>:3                                       ; preds = %0
  call void @__divine_interrupt_mask(), !dbg !1797
  br label %4, !dbg !1797

; <label>:4                                       ; preds = %3
  call void @__divine_interrupt_unmask(), !dbg !1799
  call void @__divine_interrupt(), !dbg !1799
  call void @__divine_interrupt_mask(), !dbg !1799
  br label %5, !dbg !1799

; <label>:5                                       ; preds = %4
  call void @_Z11_initializev(), !dbg !1799
  br label %6, !dbg !1799

; <label>:6                                       ; preds = %5
  %7 = load i32** %2, align 8, !dbg !1801
  %8 = icmp eq i32* %7, null, !dbg !1801
  br i1 %8, label %9, label %10, !dbg !1801

; <label>:9                                       ; preds = %6
  store i32 22, i32* %1, !dbg !1802
  br label %12, !dbg !1802

; <label>:10                                      ; preds = %6
  %11 = load i32** %2, align 8, !dbg !1803
  store i32 0, i32* %11, align 4, !dbg !1803
  store i32 0, i32* %1, !dbg !1804
  br label %12, !dbg !1804

; <label>:12                                      ; preds = %10, %9
  %13 = load i32* %1, !dbg !1805
  ret i32 %13, !dbg !1805
}

define i32 @pthread_rwlockattr_setpshared(i32* %attr, i32 %pshared) uwtable noinline {
  %1 = alloca i32, align 4
  %2 = alloca i32*, align 8
  %3 = alloca i32, align 4
  store i32* %attr, i32** %2, align 8
  call void @llvm.dbg.declare(metadata !33, metadata !1806), !dbg !1807
  store i32 %pshared, i32* %3, align 4
  call void @llvm.dbg.declare(metadata !33, metadata !1808), !dbg !1809
  br label %4, !dbg !1810

; <label>:4                                       ; preds = %0
  call void @__divine_interrupt_mask(), !dbg !1812
  br label %5, !dbg !1812

; <label>:5                                       ; preds = %4
  call void @__divine_interrupt_unmask(), !dbg !1814
  call void @__divine_interrupt(), !dbg !1814
  call void @__divine_interrupt_mask(), !dbg !1814
  br label %6, !dbg !1814

; <label>:6                                       ; preds = %5
  call void @_Z11_initializev(), !dbg !1814
  br label %7, !dbg !1814

; <label>:7                                       ; preds = %6
  %8 = load i32** %2, align 8, !dbg !1816
  %9 = icmp eq i32* %8, null, !dbg !1816
  br i1 %9, label %14, label %10, !dbg !1816

; <label>:10                                      ; preds = %7
  %11 = load i32* %3, align 4, !dbg !1816
  %12 = and i32 %11, -2, !dbg !1816
  %13 = icmp ne i32 %12, 0, !dbg !1816
  br i1 %13, label %14, label %15, !dbg !1816

; <label>:14                                      ; preds = %10, %7
  store i32 22, i32* %1, !dbg !1817
  br label %23, !dbg !1817

; <label>:15                                      ; preds = %10
  %16 = load i32** %2, align 8, !dbg !1818
  %17 = load i32* %16, align 4, !dbg !1818
  %18 = and i32 %17, -2, !dbg !1818
  store i32 %18, i32* %16, align 4, !dbg !1818
  %19 = load i32* %3, align 4, !dbg !1819
  %20 = load i32** %2, align 8, !dbg !1819
  %21 = load i32* %20, align 4, !dbg !1819
  %22 = or i32 %21, %19, !dbg !1819
  store i32 %22, i32* %20, align 4, !dbg !1819
  store i32 0, i32* %1, !dbg !1820
  br label %23, !dbg !1820

; <label>:23                                      ; preds = %15, %14
  %24 = load i32* %1, !dbg !1821
  ret i32 %24, !dbg !1821
}

define i32 @pthread_barrier_destroy(i32* %barrier) nounwind uwtable noinline {
  %1 = alloca i32*, align 8
  store i32* %barrier, i32** %1, align 8
  call void @llvm.dbg.declare(metadata !33, metadata !1822), !dbg !1823
  ret i32 0, !dbg !1824
}

define i32 @pthread_barrier_init(i32* %barrier, i32* %attr, i32 %count) nounwind uwtable noinline {
  %1 = alloca i32*, align 8
  %2 = alloca i32*, align 8
  %3 = alloca i32, align 4
  store i32* %barrier, i32** %1, align 8
  call void @llvm.dbg.declare(metadata !33, metadata !1826), !dbg !1827
  store i32* %attr, i32** %2, align 8
  call void @llvm.dbg.declare(metadata !33, metadata !1828), !dbg !1829
  store i32 %count, i32* %3, align 4
  call void @llvm.dbg.declare(metadata !33, metadata !1830), !dbg !1831
  ret i32 0, !dbg !1832
}

define i32 @pthread_barrier_wait(i32* %barrier) nounwind uwtable noinline {
  %1 = alloca i32*, align 8
  store i32* %barrier, i32** %1, align 8
  call void @llvm.dbg.declare(metadata !33, metadata !1834), !dbg !1835
  ret i32 0, !dbg !1836
}

define i32 @pthread_barrierattr_destroy(i32*) nounwind uwtable noinline {
  %2 = alloca i32*, align 8
  store i32* %0, i32** %2, align 8
  ret i32 0, !dbg !1838
}

define i32 @pthread_barrierattr_getpshared(i32*, i32*) nounwind uwtable noinline {
  %3 = alloca i32*, align 8
  %4 = alloca i32*, align 8
  store i32* %0, i32** %3, align 8
  store i32* %1, i32** %4, align 8
  ret i32 0, !dbg !1840
}

define i32 @pthread_barrierattr_init(i32*) nounwind uwtable noinline {
  %2 = alloca i32*, align 8
  store i32* %0, i32** %2, align 8
  ret i32 0, !dbg !1842
}

define i32 @pthread_barrierattr_setpshared(i32*, i32) nounwind uwtable noinline {
  %3 = alloca i32*, align 8
  %4 = alloca i32, align 4
  store i32* %0, i32** %3, align 8
  store i32 %1, i32* %4, align 4
  ret i32 0, !dbg !1844
}

!llvm.dbg.cu = !{!0, !19, !34}

!0 = metadata !{i32 786449, i32 0, i32 12, metadata !"examples/llvm/global.c", metadata !"/home/mornfall/dev/divine/mainline", metadata !"clang version 3.1 (branches/release_31)", i1 true, i1 false, metadata !"", i32 0, metadata !1, metadata !1, metadata !3, metadata !16} ; [ DW_TAG_compile_unit ]
!1 = metadata !{metadata !2}
!2 = metadata !{i32 0}
!3 = metadata !{metadata !4}
!4 = metadata !{metadata !5, metadata !12}
!5 = metadata !{i32 786478, i32 0, metadata !6, metadata !"thread", metadata !"thread", metadata !"", metadata !6, i32 31, metadata !7, i1 false, i1 true, i32 0, i32 0, null, i32 256, i1 false, i8* (i8*)* @thread, null, null, metadata !10, i32 31} ; [ DW_TAG_subprogram ]
!6 = metadata !{i32 786473, metadata !"examples/llvm/global.c", metadata !"/home/mornfall/dev/divine/mainline", null} ; [ DW_TAG_file_type ]
!7 = metadata !{i32 786453, i32 0, metadata !"", i32 0, i32 0, i64 0, i64 0, i64 0, i32 0, null, metadata !8, i32 0, i32 0} ; [ DW_TAG_subroutine_type ]
!8 = metadata !{metadata !9, metadata !9}
!9 = metadata !{i32 786447, null, metadata !"", null, i32 0, i64 64, i64 64, i64 0, i32 0, null} ; [ DW_TAG_pointer_type ]
!10 = metadata !{metadata !11}
!11 = metadata !{i32 786468}                      ; [ DW_TAG_base_type ]
!12 = metadata !{i32 786478, i32 0, metadata !6, metadata !"main", metadata !"main", metadata !"", metadata !6, i32 45, metadata !13, i1 false, i1 true, i32 0, i32 0, null, i32 0, i1 false, i32 ()* @main, null, null, metadata !10, i32 45} ; [ DW_TAG_subprogram ]
!13 = metadata !{i32 786453, i32 0, metadata !"", i32 0, i32 0, i64 0, i64 0, i64 0, i32 0, null, metadata !14, i32 0, i32 0} ; [ DW_TAG_subroutine_type ]
!14 = metadata !{metadata !15}
!15 = metadata !{i32 786468, null, metadata !"int", null, i32 0, i64 32, i64 32, i64 0, i32 0, i32 5} ; [ DW_TAG_base_type ]
!16 = metadata !{metadata !17}
!17 = metadata !{metadata !18}
!18 = metadata !{i32 786484, i32 0, null, metadata !"i", metadata !"i", metadata !"", metadata !6, i32 25, metadata !15, i32 0, i32 1, i32* @i} ; [ DW_TAG_variable ]
!19 = metadata !{i32 786449, i32 0, i32 4, metadata !"cstdlib.cpp", metadata !"/home/mornfall/dev/divine/mainline/__tmpCO9KRS", metadata !"clang version 3.1 (branches/release_31)", i1 true, i1 false, metadata !"", i32 0, metadata !1, metadata !1, metadata !20, metadata !1} ; [ DW_TAG_compile_unit ]
!20 = metadata !{metadata !21}
!21 = metadata !{metadata !22, metadata !28, metadata !31}
!22 = metadata !{i32 786478, i32 0, metadata !23, metadata !"malloc", metadata !"malloc", metadata !"", metadata !23, i32 5, metadata !24, i1 false, i1 true, i32 0, i32 0, null, i32 256, i1 false, i8* (i64)* @malloc, null, null, metadata !10, i32 5} ; [ DW_TAG_subprogram ]
!23 = metadata !{i32 786473, metadata !"cstdlib.cpp", metadata !"/home/mornfall/dev/divine/mainline/__tmpCO9KRS", null} ; [ DW_TAG_file_type ]
!24 = metadata !{i32 786453, i32 0, metadata !"", i32 0, i32 0, i64 0, i64 0, i64 0, i32 0, null, metadata !25, i32 0, i32 0} ; [ DW_TAG_subroutine_type ]
!25 = metadata !{metadata !9, metadata !26}
!26 = metadata !{i32 786454, null, metadata !"size_t", metadata !23, i32 23, i64 0, i64 0, i64 0, i32 0, metadata !27} ; [ DW_TAG_typedef ]
!27 = metadata !{i32 786468, null, metadata !"long unsigned int", null, i32 0, i64 64, i64 64, i64 0, i32 0, i32 7} ; [ DW_TAG_base_type ]
!28 = metadata !{i32 786478, i32 0, metadata !23, metadata !"free", metadata !"free", metadata !"", metadata !23, i32 22, metadata !29, i1 false, i1 true, i32 0, i32 0, null, i32 256, i1 false, void (i8*)* @free, null, null, metadata !10, i32 22} ; [ DW_TAG_subprogram ]
!29 = metadata !{i32 786453, i32 0, metadata !"", i32 0, i32 0, i64 0, i64 0, i64 0, i32 0, null, metadata !30, i32 0, i32 0} ; [ DW_TAG_subroutine_type ]
!30 = metadata !{null, metadata !9}
!31 = metadata !{i32 786478, i32 0, metadata !23, metadata !"_ZSt9terminatev", metadata !"_ZSt9terminatev", metadata !"", metadata !23, i32 31, metadata !32, i1 false, i1 true, i32 0, i32 0, null, i32 256, i1 false, void ()* @_ZSt9terminatev, null, null, metadata !10, i32 31} ; [ DW_TAG_subprogram ]
!32 = metadata !{i32 786453, i32 0, metadata !"", i32 0, i32 0, i64 0, i64 0, i64 0, i32 0, null, metadata !33, i32 0, i32 0} ; [ DW_TAG_subroutine_type ]
!33 = metadata !{null}
!34 = metadata !{i32 786449, i32 0, i32 4, metadata !"pthread.cpp", metadata !"/home/mornfall/dev/divine/mainline/__tmpCO9KRS", metadata !"clang version 3.1 (branches/release_31)", i1 true, i1 false, metadata !"", i32 0, metadata !1, metadata !1, metadata !35, metadata !425} ; [ DW_TAG_compile_unit ]
!35 = metadata !{metadata !36}
!36 = metadata !{metadata !37, metadata !42, metadata !46, metadata !51, metadata !52, metadata !53, metadata !54, metadata !55, metadata !56, metadata !63, metadata !64, metadata !68, metadata !71, metadata !75, metadata !76, metadata !80, metadata !85, metadata !86, metadata !92, metadata !93, metadata !94, metadata !97, metadata !100, metadata !101, metadata !104, metadata !107, metadata !108, metadata !111, metadata !112, metadata !113, metadata !116, metadata !119, metadata !120, metadata !123, metadata !126, metadata !127, metadata !132, metadata !135, metadata !138, metadata !141, metadata !144, metadata !150, metadata !151, metadata !152, metadata !155, metadata !161, metadata !162, metadata !163, metadata !164, metadata !169, metadata !172, metadata !178, metadata !182, metadata !183, metadata !186, metadata !187, metadata !188, metadata !189, metadata !192, metadata !193, metadata !194, metadata !195, metadata !200, metadata !203, metadata !204, metadata !205, metadata !206, metadata !221, metadata !224, metadata !229, metadata !232, metadata !241, metadata !244, metadata !250, metadata !251, metadata !252, metadata !253, metadata !256, metadata !259, metadata !263, metadata !266, metadata !269, metadata !270, metadata !273, metadata !276, metadata !281, metadata !284, metadata !285, metadata !286, metadata !287, metadata !290, metadata !293, metadata !303, metadata !313, metadata !316, metadata !319, metadata !322, metadata !325, metadata !331, metadata !332, metadata !333, metadata !334, metadata !335, metadata !336, metadata !340, metadata !343, metadata !344, metadata !347, metadata !352, metadata !359, metadata !360, metadata !364, metadata !367, metadata !368, metadata !371, metadata !376}
!37 = metadata !{i32 786478, i32 0, metadata !38, metadata !"pthread_atfork", metadata !"pthread_atfork", metadata !"", metadata !38, i32 136, metadata !39, i1 false, i1 true, i32 0, i32 0, null, i32 256, i1 false, i32 (void ()*, void ()*, void ()*)* @pthread_atfork, null, null, metadata !10, i32 136} ; [ DW_TAG_subprogram ]
!38 = metadata !{i32 786473, metadata !"pthread.cpp", metadata !"/home/mornfall/dev/divine/mainline/__tmpCO9KRS", null} ; [ DW_TAG_file_type ]
!39 = metadata !{i32 786453, i32 0, metadata !"", i32 0, i32 0, i64 0, i64 0, i64 0, i32 0, null, metadata !40, i32 0, i32 0} ; [ DW_TAG_subroutine_type ]
!40 = metadata !{metadata !15, metadata !41, metadata !41, metadata !41}
!41 = metadata !{i32 786447, null, metadata !"", null, i32 0, i64 64, i64 64, i64 0, i32 0, metadata !32} ; [ DW_TAG_pointer_type ]
!42 = metadata !{i32 786478, i32 0, metadata !38, metadata !"_get_gtid", metadata !"_get_gtid", metadata !"_Z9_get_gtidi", metadata !38, i32 142, metadata !43, i1 false, i1 true, i32 0, i32 0, null, i32 256, i1 false, i32 (i32)* @_Z9_get_gtidi, null, null, metadata !10, i32 142} ; [ DW_TAG_subprogram ]
!43 = metadata !{i32 786453, i32 0, metadata !"", i32 0, i32 0, i64 0, i64 0, i64 0, i32 0, null, metadata !44, i32 0, i32 0} ; [ DW_TAG_subroutine_type ]
!44 = metadata !{metadata !15, metadata !45}
!45 = metadata !{i32 786470, null, metadata !"", null, i32 0, i64 0, i64 0, i64 0, i32 0, metadata !15} ; [ DW_TAG_const_type ]
!46 = metadata !{i32 786478, i32 0, metadata !38, metadata !"_init_thread", metadata !"_init_thread", metadata !"_Z12_init_threadiii", metadata !38, i32 156, metadata !47, i1 false, i1 true, i32 0, i32 0, null, i32 256, i1 false, void (i32, i32, i32)* @_Z12_init_threadiii, null, null, metadata !10, i32 156} ; [ DW_TAG_subprogram ]
!47 = metadata !{i32 786453, i32 0, metadata !"", i32 0, i32 0, i64 0, i64 0, i64 0, i32 0, null, metadata !48, i32 0, i32 0} ; [ DW_TAG_subroutine_type ]
!48 = metadata !{null, metadata !45, metadata !45, metadata !49}
!49 = metadata !{i32 786470, null, metadata !"", null, i32 0, i64 0, i64 0, i64 0, i32 0, metadata !50} ; [ DW_TAG_const_type ]
!50 = metadata !{i32 786454, null, metadata !"pthread_attr_t", metadata !38, i32 58, i64 0, i64 0, i64 0, i32 0, metadata !15} ; [ DW_TAG_typedef ]
!51 = metadata !{i32 786478, i32 0, metadata !38, metadata !"_initialize", metadata !"_initialize", metadata !"_Z11_initializev", metadata !38, i32 205, metadata !32, i1 false, i1 true, i32 0, i32 0, null, i32 256, i1 false, void ()* @_Z11_initializev, null, null, metadata !10, i32 205} ; [ DW_TAG_subprogram ]
!52 = metadata !{i32 786478, i32 0, metadata !38, metadata !"_cleanup", metadata !"_cleanup", metadata !"_Z8_cleanupv", metadata !38, i32 221, metadata !32, i1 false, i1 true, i32 0, i32 0, null, i32 256, i1 false, void ()* @_Z8_cleanupv, null, null, metadata !10, i32 221} ; [ DW_TAG_subprogram ]
!53 = metadata !{i32 786478, i32 0, metadata !38, metadata !"_cancel", metadata !"_cancel", metadata !"_Z7_cancelv", metadata !38, i32 236, metadata !32, i1 false, i1 true, i32 0, i32 0, null, i32 256, i1 false, void ()* @_Z7_cancelv, null, null, metadata !10, i32 236} ; [ DW_TAG_subprogram ]
!54 = metadata !{i32 786478, i32 0, metadata !38, metadata !"_canceled", metadata !"_canceled", metadata !"_Z9_canceledv", metadata !38, i32 249, metadata !13, i1 false, i1 true, i32 0, i32 0, null, i32 256, i1 false, i32 ()* @_Z9_canceledv, null, null, metadata !10, i32 249} ; [ DW_TAG_subprogram ]
!55 = metadata !{i32 786478, i32 0, metadata !38, metadata !"_pthread_entry", metadata !"_pthread_entry", metadata !"_Z14_pthread_entryPv", metadata !38, i32 254, metadata !29, i1 false, i1 true, i32 0, i32 0, null, i32 256, i1 false, void (i8*)* @_Z14_pthread_entryPv, null, null, metadata !10, i32 255} ; [ DW_TAG_subprogram ]
!56 = metadata !{i32 786478, i32 0, metadata !38, metadata !"pthread_create", metadata !"pthread_create", metadata !"", metadata !38, i32 317, metadata !57, i1 false, i1 true, i32 0, i32 0, null, i32 256, i1 false, i32 (i32*, i32*, i8* (i8*)*, i8*)* @pthread_create, null, null, metadata !10, i32 318} ; [ DW_TAG_subprogram ]
!57 = metadata !{i32 786453, i32 0, metadata !"", i32 0, i32 0, i64 0, i64 0, i64 0, i32 0, null, metadata !58, i32 0, i32 0} ; [ DW_TAG_subroutine_type ]
!58 = metadata !{metadata !15, metadata !59, metadata !61, metadata !62, metadata !9}
!59 = metadata !{i32 786447, null, metadata !"", null, i32 0, i64 64, i64 64, i64 0, i32 0, metadata !60} ; [ DW_TAG_pointer_type ]
!60 = metadata !{i32 786454, null, metadata !"pthread_t", metadata !38, i32 59, i64 0, i64 0, i64 0, i32 0, metadata !15} ; [ DW_TAG_typedef ]
!61 = metadata !{i32 786447, null, metadata !"", null, i32 0, i64 64, i64 64, i64 0, i32 0, metadata !49} ; [ DW_TAG_pointer_type ]
!62 = metadata !{i32 786447, null, metadata !"", null, i32 0, i64 64, i64 64, i64 0, i32 0, metadata !7} ; [ DW_TAG_pointer_type ]
!63 = metadata !{i32 786478, i32 0, metadata !38, metadata !"pthread_exit", metadata !"pthread_exit", metadata !"", metadata !38, i32 352, metadata !29, i1 false, i1 true, i32 0, i32 0, null, i32 256, i1 false, void (i8*)* @pthread_exit, null, null, metadata !10, i32 352} ; [ DW_TAG_subprogram ]
!64 = metadata !{i32 786478, i32 0, metadata !38, metadata !"pthread_join", metadata !"pthread_join", metadata !"", metadata !38, i32 382, metadata !65, i1 false, i1 true, i32 0, i32 0, null, i32 256, i1 false, i32 (i32, i8**)* @pthread_join, null, null, metadata !10, i32 382} ; [ DW_TAG_subprogram ]
!65 = metadata !{i32 786453, i32 0, metadata !"", i32 0, i32 0, i64 0, i64 0, i64 0, i32 0, null, metadata !66, i32 0, i32 0} ; [ DW_TAG_subroutine_type ]
!66 = metadata !{metadata !15, metadata !60, metadata !67}
!67 = metadata !{i32 786447, null, metadata !"", null, i32 0, i64 64, i64 64, i64 0, i32 0, metadata !9} ; [ DW_TAG_pointer_type ]
!68 = metadata !{i32 786478, i32 0, metadata !38, metadata !"pthread_detach", metadata !"pthread_detach", metadata !"", metadata !38, i32 423, metadata !69, i1 false, i1 true, i32 0, i32 0, null, i32 256, i1 false, i32 (i32)* @pthread_detach, null, null, metadata !10, i32 423} ; [ DW_TAG_subprogram ]
!69 = metadata !{i32 786453, i32 0, metadata !"", i32 0, i32 0, i64 0, i64 0, i64 0, i32 0, null, metadata !70, i32 0, i32 0} ; [ DW_TAG_subroutine_type ]
!70 = metadata !{metadata !15, metadata !60}
!71 = metadata !{i32 786478, i32 0, metadata !38, metadata !"pthread_attr_destroy", metadata !"pthread_attr_destroy", metadata !"", metadata !38, i32 452, metadata !72, i1 false, i1 true, i32 0, i32 0, null, i32 256, i1 false, i32 (i32*)* @pthread_attr_destroy, null, null, metadata !10, i32 452} ; [ DW_TAG_subprogram ]
!72 = metadata !{i32 786453, i32 0, metadata !"", i32 0, i32 0, i64 0, i64 0, i64 0, i32 0, null, metadata !73, i32 0, i32 0} ; [ DW_TAG_subroutine_type ]
!73 = metadata !{metadata !15, metadata !74}
!74 = metadata !{i32 786447, null, metadata !"", null, i32 0, i64 64, i64 64, i64 0, i32 0, metadata !50} ; [ DW_TAG_pointer_type ]
!75 = metadata !{i32 786478, i32 0, metadata !38, metadata !"pthread_attr_init", metadata !"pthread_attr_init", metadata !"", metadata !38, i32 457, metadata !72, i1 false, i1 true, i32 0, i32 0, null, i32 256, i1 false, i32 (i32*)* @pthread_attr_init, null, null, metadata !10, i32 457} ; [ DW_TAG_subprogram ]
!76 = metadata !{i32 786478, i32 0, metadata !38, metadata !"pthread_attr_getdetachstate", metadata !"pthread_attr_getdetachstate", metadata !"", metadata !38, i32 463, metadata !77, i1 false, i1 true, i32 0, i32 0, null, i32 256, i1 false, i32 (i32*, i32*)* @pthread_attr_getdetachstate, null, null, metadata !10, i32 463} ; [ DW_TAG_subprogram ]
!77 = metadata !{i32 786453, i32 0, metadata !"", i32 0, i32 0, i64 0, i64 0, i64 0, i32 0, null, metadata !78, i32 0, i32 0} ; [ DW_TAG_subroutine_type ]
!78 = metadata !{metadata !15, metadata !61, metadata !79}
!79 = metadata !{i32 786447, null, metadata !"", null, i32 0, i64 64, i64 64, i64 0, i32 0, metadata !15} ; [ DW_TAG_pointer_type ]
!80 = metadata !{i32 786478, i32 0, metadata !38, metadata !"pthread_attr_getguardsize", metadata !"pthread_attr_getguardsize", metadata !"", metadata !38, i32 473, metadata !81, i1 false, i1 true, i32 0, i32 0, null, i32 256, i1 false, i32 (i32*, i64*)* @pthread_attr_getguardsize, null, null, metadata !10, i32 473} ; [ DW_TAG_subprogram ]
!81 = metadata !{i32 786453, i32 0, metadata !"", i32 0, i32 0, i64 0, i64 0, i64 0, i32 0, null, metadata !82, i32 0, i32 0} ; [ DW_TAG_subroutine_type ]
!82 = metadata !{metadata !15, metadata !61, metadata !83}
!83 = metadata !{i32 786447, null, metadata !"", null, i32 0, i64 64, i64 64, i64 0, i32 0, metadata !84} ; [ DW_TAG_pointer_type ]
!84 = metadata !{i32 786454, null, metadata !"size_t", metadata !38, i32 23, i64 0, i64 0, i64 0, i32 0, metadata !27} ; [ DW_TAG_typedef ]
!85 = metadata !{i32 786478, i32 0, metadata !38, metadata !"pthread_attr_getinheritsched", metadata !"pthread_attr_getinheritsched", metadata !"", metadata !38, i32 478, metadata !77, i1 false, i1 true, i32 0, i32 0, null, i32 256, i1 false, i32 (i32*, i32*)* @pthread_attr_getinheritsched, null, null, metadata !10, i32 478} ; [ DW_TAG_subprogram ]
!86 = metadata !{i32 786478, i32 0, metadata !38, metadata !"pthread_attr_getschedparam", metadata !"pthread_attr_getschedparam", metadata !"", metadata !38, i32 483, metadata !87, i1 false, i1 true, i32 0, i32 0, null, i32 256, i1 false, i32 (i32*, %struct.sched_param*)* @pthread_attr_getschedparam, null, null, metadata !10, i32 483} ; [ DW_TAG_subprogram ]
!87 = metadata !{i32 786453, i32 0, metadata !"", i32 0, i32 0, i64 0, i64 0, i64 0, i32 0, null, metadata !88, i32 0, i32 0} ; [ DW_TAG_subroutine_type ]
!88 = metadata !{metadata !15, metadata !61, metadata !89}
!89 = metadata !{i32 786447, null, metadata !"", null, i32 0, i64 64, i64 64, i64 0, i32 0, metadata !90} ; [ DW_TAG_pointer_type ]
!90 = metadata !{i32 786434, null, metadata !"sched_param", metadata !91, i32 22, i64 8, i64 8, i32 0, i32 0, null, metadata !2, i32 0, null, null} ; [ DW_TAG_class_type ]
!91 = metadata !{i32 786473, metadata !"./cstdlib", metadata !"/home/mornfall/dev/divine/mainline/__tmpCO9KRS", null} ; [ DW_TAG_file_type ]
!92 = metadata !{i32 786478, i32 0, metadata !38, metadata !"pthread_attr_getschedpolicy", metadata !"pthread_attr_getschedpolicy", metadata !"", metadata !38, i32 488, metadata !77, i1 false, i1 true, i32 0, i32 0, null, i32 256, i1 false, i32 (i32*, i32*)* @pthread_attr_getschedpolicy, null, null, metadata !10, i32 488} ; [ DW_TAG_subprogram ]
!93 = metadata !{i32 786478, i32 0, metadata !38, metadata !"pthread_attr_getscope", metadata !"pthread_attr_getscope", metadata !"", metadata !38, i32 493, metadata !77, i1 false, i1 true, i32 0, i32 0, null, i32 256, i1 false, i32 (i32*, i32*)* @pthread_attr_getscope, null, null, metadata !10, i32 493} ; [ DW_TAG_subprogram ]
!94 = metadata !{i32 786478, i32 0, metadata !38, metadata !"pthread_attr_getstack", metadata !"pthread_attr_getstack", metadata !"", metadata !38, i32 498, metadata !95, i1 false, i1 true, i32 0, i32 0, null, i32 256, i1 false, i32 (i32*, i8**, i64*)* @pthread_attr_getstack, null, null, metadata !10, i32 498} ; [ DW_TAG_subprogram ]
!95 = metadata !{i32 786453, i32 0, metadata !"", i32 0, i32 0, i64 0, i64 0, i64 0, i32 0, null, metadata !96, i32 0, i32 0} ; [ DW_TAG_subroutine_type ]
!96 = metadata !{metadata !15, metadata !61, metadata !67, metadata !83}
!97 = metadata !{i32 786478, i32 0, metadata !38, metadata !"pthread_attr_getstackaddr", metadata !"pthread_attr_getstackaddr", metadata !"", metadata !38, i32 503, metadata !98, i1 false, i1 true, i32 0, i32 0, null, i32 256, i1 false, i32 (i32*, i8**)* @pthread_attr_getstackaddr, null, null, metadata !10, i32 503} ; [ DW_TAG_subprogram ]
!98 = metadata !{i32 786453, i32 0, metadata !"", i32 0, i32 0, i64 0, i64 0, i64 0, i32 0, null, metadata !99, i32 0, i32 0} ; [ DW_TAG_subroutine_type ]
!99 = metadata !{metadata !15, metadata !61, metadata !67}
!100 = metadata !{i32 786478, i32 0, metadata !38, metadata !"pthread_attr_getstacksize", metadata !"pthread_attr_getstacksize", metadata !"", metadata !38, i32 508, metadata !81, i1 false, i1 true, i32 0, i32 0, null, i32 256, i1 false, i32 (i32*, i64*)* @pthread_attr_getstacksize, null, null, metadata !10, i32 508} ; [ DW_TAG_subprogram ]
!101 = metadata !{i32 786478, i32 0, metadata !38, metadata !"pthread_attr_setdetachstate", metadata !"pthread_attr_setdetachstate", metadata !"", metadata !38, i32 513, metadata !102, i1 false, i1 true, i32 0, i32 0, null, i32 256, i1 false, i32 (i32*, i32)* @pthread_attr_setdetachstate, null, null, metadata !10, i32 513} ; [ DW_TAG_subprogram ]
!102 = metadata !{i32 786453, i32 0, metadata !"", i32 0, i32 0, i64 0, i64 0, i64 0, i32 0, null, metadata !103, i32 0, i32 0} ; [ DW_TAG_subroutine_type ]
!103 = metadata !{metadata !15, metadata !74, metadata !15}
!104 = metadata !{i32 786478, i32 0, metadata !38, metadata !"pthread_attr_setguardsize", metadata !"pthread_attr_setguardsize", metadata !"", metadata !38, i32 524, metadata !105, i1 false, i1 true, i32 0, i32 0, null, i32 256, i1 false, i32 (i32*, i64)* @pthread_attr_setguardsize, null, null, metadata !10, i32 524} ; [ DW_TAG_subprogram ]
!105 = metadata !{i32 786453, i32 0, metadata !"", i32 0, i32 0, i64 0, i64 0, i64 0, i32 0, null, metadata !106, i32 0, i32 0} ; [ DW_TAG_subroutine_type ]
!106 = metadata !{metadata !15, metadata !74, metadata !84}
!107 = metadata !{i32 786478, i32 0, metadata !38, metadata !"pthread_attr_setinheritsched", metadata !"pthread_attr_setinheritsched", metadata !"", metadata !38, i32 529, metadata !102, i1 false, i1 true, i32 0, i32 0, null, i32 256, i1 false, i32 (i32*, i32)* @pthread_attr_setinheritsched, null, null, metadata !10, i32 529} ; [ DW_TAG_subprogram ]
!108 = metadata !{i32 786478, i32 0, metadata !38, metadata !"pthread_attr_setschedparam", metadata !"pthread_attr_setschedparam", metadata !"", metadata !38, i32 534, metadata !109, i1 false, i1 true, i32 0, i32 0, null, i32 256, i1 false, i32 (i32*, %struct.sched_param*)* @pthread_attr_setschedparam, null, null, metadata !10, i32 534} ; [ DW_TAG_subprogram ]
!109 = metadata !{i32 786453, i32 0, metadata !"", i32 0, i32 0, i64 0, i64 0, i64 0, i32 0, null, metadata !110, i32 0, i32 0} ; [ DW_TAG_subroutine_type ]
!110 = metadata !{metadata !15, metadata !74, metadata !89}
!111 = metadata !{i32 786478, i32 0, metadata !38, metadata !"pthread_attr_setschedpolicy", metadata !"pthread_attr_setschedpolicy", metadata !"", metadata !38, i32 539, metadata !102, i1 false, i1 true, i32 0, i32 0, null, i32 256, i1 false, i32 (i32*, i32)* @pthread_attr_setschedpolicy, null, null, metadata !10, i32 539} ; [ DW_TAG_subprogram ]
!112 = metadata !{i32 786478, i32 0, metadata !38, metadata !"pthread_attr_setscope", metadata !"pthread_attr_setscope", metadata !"", metadata !38, i32 544, metadata !102, i1 false, i1 true, i32 0, i32 0, null, i32 256, i1 false, i32 (i32*, i32)* @pthread_attr_setscope, null, null, metadata !10, i32 544} ; [ DW_TAG_subprogram ]
!113 = metadata !{i32 786478, i32 0, metadata !38, metadata !"pthread_attr_setstack", metadata !"pthread_attr_setstack", metadata !"", metadata !38, i32 549, metadata !114, i1 false, i1 true, i32 0, i32 0, null, i32 256, i1 false, i32 (i32*, i8*, i64)* @pthread_attr_setstack, null, null, metadata !10, i32 549} ; [ DW_TAG_subprogram ]
!114 = metadata !{i32 786453, i32 0, metadata !"", i32 0, i32 0, i64 0, i64 0, i64 0, i32 0, null, metadata !115, i32 0, i32 0} ; [ DW_TAG_subroutine_type ]
!115 = metadata !{metadata !15, metadata !74, metadata !9, metadata !84}
!116 = metadata !{i32 786478, i32 0, metadata !38, metadata !"pthread_attr_setstackaddr", metadata !"pthread_attr_setstackaddr", metadata !"", metadata !38, i32 554, metadata !117, i1 false, i1 true, i32 0, i32 0, null, i32 256, i1 false, i32 (i32*, i8*)* @pthread_attr_setstackaddr, null, null, metadata !10, i32 554} ; [ DW_TAG_subprogram ]
!117 = metadata !{i32 786453, i32 0, metadata !"", i32 0, i32 0, i64 0, i64 0, i64 0, i32 0, null, metadata !118, i32 0, i32 0} ; [ DW_TAG_subroutine_type ]
!118 = metadata !{metadata !15, metadata !74, metadata !9}
!119 = metadata !{i32 786478, i32 0, metadata !38, metadata !"pthread_attr_setstacksize", metadata !"pthread_attr_setstacksize", metadata !"", metadata !38, i32 559, metadata !105, i1 false, i1 true, i32 0, i32 0, null, i32 256, i1 false, i32 (i32*, i64)* @pthread_attr_setstacksize, null, null, metadata !10, i32 559} ; [ DW_TAG_subprogram ]
!120 = metadata !{i32 786478, i32 0, metadata !38, metadata !"pthread_self", metadata !"pthread_self", metadata !"", metadata !38, i32 565, metadata !121, i1 false, i1 true, i32 0, i32 0, null, i32 256, i1 false, i32 ()* @pthread_self, null, null, metadata !10, i32 565} ; [ DW_TAG_subprogram ]
!121 = metadata !{i32 786453, i32 0, metadata !"", i32 0, i32 0, i64 0, i64 0, i64 0, i32 0, null, metadata !122, i32 0, i32 0} ; [ DW_TAG_subroutine_type ]
!122 = metadata !{metadata !60}
!123 = metadata !{i32 786478, i32 0, metadata !38, metadata !"pthread_equal", metadata !"pthread_equal", metadata !"", metadata !38, i32 571, metadata !124, i1 false, i1 true, i32 0, i32 0, null, i32 256, i1 false, i32 (i32, i32)* @pthread_equal, null, null, metadata !10, i32 571} ; [ DW_TAG_subprogram ]
!124 = metadata !{i32 786453, i32 0, metadata !"", i32 0, i32 0, i64 0, i64 0, i64 0, i32 0, null, metadata !125, i32 0, i32 0} ; [ DW_TAG_subroutine_type ]
!125 = metadata !{metadata !15, metadata !60, metadata !60}
!126 = metadata !{i32 786478, i32 0, metadata !38, metadata !"pthread_getconcurrency", metadata !"pthread_getconcurrency", metadata !"", metadata !38, i32 576, metadata !13, i1 false, i1 true, i32 0, i32 0, null, i32 256, i1 false, i32 ()* @pthread_getconcurrency, null, null, metadata !10, i32 576} ; [ DW_TAG_subprogram ]
!127 = metadata !{i32 786478, i32 0, metadata !38, metadata !"pthread_getcpuclockid", metadata !"pthread_getcpuclockid", metadata !"", metadata !38, i32 581, metadata !128, i1 false, i1 true, i32 0, i32 0, null, i32 256, i1 false, i32 (i32, i32*)* @pthread_getcpuclockid, null, null, metadata !10, i32 581} ; [ DW_TAG_subprogram ]
!128 = metadata !{i32 786453, i32 0, metadata !"", i32 0, i32 0, i64 0, i64 0, i64 0, i32 0, null, metadata !129, i32 0, i32 0} ; [ DW_TAG_subroutine_type ]
!129 = metadata !{metadata !15, metadata !60, metadata !130}
!130 = metadata !{i32 786447, null, metadata !"", null, i32 0, i64 64, i64 64, i64 0, i32 0, metadata !131} ; [ DW_TAG_pointer_type ]
!131 = metadata !{i32 786454, null, metadata !"clockid_t", metadata !38, i32 20, i64 0, i64 0, i64 0, i32 0, metadata !15} ; [ DW_TAG_typedef ]
!132 = metadata !{i32 786478, i32 0, metadata !38, metadata !"pthread_getschedparam", metadata !"pthread_getschedparam", metadata !"", metadata !38, i32 586, metadata !133, i1 false, i1 true, i32 0, i32 0, null, i32 256, i1 false, i32 (i32, i32*, %struct.sched_param*)* @pthread_getschedparam, null, null, metadata !10, i32 586} ; [ DW_TAG_subprogram ]
!133 = metadata !{i32 786453, i32 0, metadata !"", i32 0, i32 0, i64 0, i64 0, i64 0, i32 0, null, metadata !134, i32 0, i32 0} ; [ DW_TAG_subroutine_type ]
!134 = metadata !{metadata !15, metadata !60, metadata !79, metadata !89}
!135 = metadata !{i32 786478, i32 0, metadata !38, metadata !"pthread_setconcurrency", metadata !"pthread_setconcurrency", metadata !"", metadata !38, i32 591, metadata !136, i1 false, i1 true, i32 0, i32 0, null, i32 256, i1 false, i32 (i32)* @pthread_setconcurrency, null, null, metadata !10, i32 591} ; [ DW_TAG_subprogram ]
!136 = metadata !{i32 786453, i32 0, metadata !"", i32 0, i32 0, i64 0, i64 0, i64 0, i32 0, null, metadata !137, i32 0, i32 0} ; [ DW_TAG_subroutine_type ]
!137 = metadata !{metadata !15, metadata !15}
!138 = metadata !{i32 786478, i32 0, metadata !38, metadata !"pthread_setschedparam", metadata !"pthread_setschedparam", metadata !"", metadata !38, i32 596, metadata !139, i1 false, i1 true, i32 0, i32 0, null, i32 256, i1 false, i32 (i32, i32, %struct.sched_param*)* @pthread_setschedparam, null, null, metadata !10, i32 596} ; [ DW_TAG_subprogram ]
!139 = metadata !{i32 786453, i32 0, metadata !"", i32 0, i32 0, i64 0, i64 0, i64 0, i32 0, null, metadata !140, i32 0, i32 0} ; [ DW_TAG_subroutine_type ]
!140 = metadata !{metadata !15, metadata !60, metadata !15, metadata !89}
!141 = metadata !{i32 786478, i32 0, metadata !38, metadata !"pthread_setschedprio", metadata !"pthread_setschedprio", metadata !"", metadata !38, i32 601, metadata !142, i1 false, i1 true, i32 0, i32 0, null, i32 256, i1 false, i32 (i32, i32)* @pthread_setschedprio, null, null, metadata !10, i32 601} ; [ DW_TAG_subprogram ]
!142 = metadata !{i32 786453, i32 0, metadata !"", i32 0, i32 0, i64 0, i64 0, i64 0, i32 0, null, metadata !143, i32 0, i32 0} ; [ DW_TAG_subroutine_type ]
!143 = metadata !{metadata !15, metadata !60, metadata !15}
!144 = metadata !{i32 786478, i32 0, metadata !38, metadata !"_mutex_adjust_count", metadata !"_mutex_adjust_count", metadata !"_Z19_mutex_adjust_countPii", metadata !38, i32 615, metadata !145, i1 false, i1 true, i32 0, i32 0, null, i32 256, i1 false, i32 (i32*, i32)* @_Z19_mutex_adjust_countPii, null, null, metadata !10, i32 615} ; [ DW_TAG_subprogram ]
!145 = metadata !{i32 786453, i32 0, metadata !"", i32 0, i32 0, i64 0, i64 0, i64 0, i32 0, null, metadata !146, i32 0, i32 0} ; [ DW_TAG_subroutine_type ]
!146 = metadata !{metadata !15, metadata !147, metadata !15}
!147 = metadata !{i32 786447, null, metadata !"", null, i32 0, i64 64, i64 64, i64 0, i32 0, metadata !148} ; [ DW_TAG_pointer_type ]
!148 = metadata !{i32 786454, null, metadata !"pthread_mutex_t", metadata !149, i32 60, i64 0, i64 0, i64 0, i32 0, metadata !15} ; [ DW_TAG_typedef ]
!149 = metadata !{i32 786473, metadata !"./pthread.h", metadata !"/home/mornfall/dev/divine/mainline/__tmpCO9KRS", null} ; [ DW_TAG_file_type ]
!150 = metadata !{i32 786478, i32 0, metadata !38, metadata !"_mutex_can_lock", metadata !"_mutex_can_lock", metadata !"_Z15_mutex_can_lockPii", metadata !38, i32 626, metadata !145, i1 false, i1 true, i32 0, i32 0, null, i32 256, i1 false, i32 (i32*, i32)* @_Z15_mutex_can_lockPii, null, null, metadata !10, i32 626} ; [ DW_TAG_subprogram ]
!151 = metadata !{i32 786478, i32 0, metadata !38, metadata !"_mutex_lock", metadata !"_mutex_lock", metadata !"_Z11_mutex_lockPii", metadata !38, i32 630, metadata !145, i1 false, i1 true, i32 0, i32 0, null, i32 256, i1 false, i32 (i32*, i32)* @_Z11_mutex_lockPii, null, null, metadata !10, i32 630} ; [ DW_TAG_subprogram ]
!152 = metadata !{i32 786478, i32 0, metadata !38, metadata !"pthread_mutex_destroy", metadata !"pthread_mutex_destroy", metadata !"", metadata !38, i32 667, metadata !153, i1 false, i1 true, i32 0, i32 0, null, i32 256, i1 false, i32 (i32*)* @pthread_mutex_destroy, null, null, metadata !10, i32 667} ; [ DW_TAG_subprogram ]
!153 = metadata !{i32 786453, i32 0, metadata !"", i32 0, i32 0, i64 0, i64 0, i64 0, i32 0, null, metadata !154, i32 0, i32 0} ; [ DW_TAG_subroutine_type ]
!154 = metadata !{metadata !15, metadata !147}
!155 = metadata !{i32 786478, i32 0, metadata !38, metadata !"pthread_mutex_init", metadata !"pthread_mutex_init", metadata !"", metadata !38, i32 684, metadata !156, i1 false, i1 true, i32 0, i32 0, null, i32 256, i1 false, i32 (i32*, i32*)* @pthread_mutex_init, null, null, metadata !10, i32 684} ; [ DW_TAG_subprogram ]
!156 = metadata !{i32 786453, i32 0, metadata !"", i32 0, i32 0, i64 0, i64 0, i64 0, i32 0, null, metadata !157, i32 0, i32 0} ; [ DW_TAG_subroutine_type ]
!157 = metadata !{metadata !15, metadata !147, metadata !158}
!158 = metadata !{i32 786447, null, metadata !"", null, i32 0, i64 64, i64 64, i64 0, i32 0, metadata !159} ; [ DW_TAG_pointer_type ]
!159 = metadata !{i32 786470, null, metadata !"", null, i32 0, i64 0, i64 0, i64 0, i32 0, metadata !160} ; [ DW_TAG_const_type ]
!160 = metadata !{i32 786454, null, metadata !"pthread_mutexattr_t", metadata !38, i32 61, i64 0, i64 0, i64 0, i32 0, metadata !15} ; [ DW_TAG_typedef ]
!161 = metadata !{i32 786478, i32 0, metadata !38, metadata !"pthread_mutex_lock", metadata !"pthread_mutex_lock", metadata !"", metadata !38, i32 704, metadata !153, i1 false, i1 true, i32 0, i32 0, null, i32 256, i1 false, i32 (i32*)* @pthread_mutex_lock, null, null, metadata !10, i32 704} ; [ DW_TAG_subprogram ]
!162 = metadata !{i32 786478, i32 0, metadata !38, metadata !"pthread_mutex_trylock", metadata !"pthread_mutex_trylock", metadata !"", metadata !38, i32 709, metadata !153, i1 false, i1 true, i32 0, i32 0, null, i32 256, i1 false, i32 (i32*)* @pthread_mutex_trylock, null, null, metadata !10, i32 709} ; [ DW_TAG_subprogram ]
!163 = metadata !{i32 786478, i32 0, metadata !38, metadata !"pthread_mutex_unlock", metadata !"pthread_mutex_unlock", metadata !"", metadata !38, i32 714, metadata !153, i1 false, i1 true, i32 0, i32 0, null, i32 256, i1 false, i32 (i32*)* @pthread_mutex_unlock, null, null, metadata !10, i32 714} ; [ DW_TAG_subprogram ]
!164 = metadata !{i32 786478, i32 0, metadata !38, metadata !"pthread_mutex_getprioceiling", metadata !"pthread_mutex_getprioceiling", metadata !"", metadata !38, i32 737, metadata !165, i1 false, i1 true, i32 0, i32 0, null, i32 256, i1 false, i32 (i32*, i32*)* @pthread_mutex_getprioceiling, null, null, metadata !10, i32 737} ; [ DW_TAG_subprogram ]
!165 = metadata !{i32 786453, i32 0, metadata !"", i32 0, i32 0, i64 0, i64 0, i64 0, i32 0, null, metadata !166, i32 0, i32 0} ; [ DW_TAG_subroutine_type ]
!166 = metadata !{metadata !15, metadata !167, metadata !79}
!167 = metadata !{i32 786447, null, metadata !"", null, i32 0, i64 64, i64 64, i64 0, i32 0, metadata !168} ; [ DW_TAG_pointer_type ]
!168 = metadata !{i32 786470, null, metadata !"", null, i32 0, i64 0, i64 0, i64 0, i32 0, metadata !148} ; [ DW_TAG_const_type ]
!169 = metadata !{i32 786478, i32 0, metadata !38, metadata !"pthread_mutex_setprioceiling", metadata !"pthread_mutex_setprioceiling", metadata !"", metadata !38, i32 742, metadata !170, i1 false, i1 true, i32 0, i32 0, null, i32 256, i1 false, i32 (i32*, i32, i32*)* @pthread_mutex_setprioceiling, null, null, metadata !10, i32 742} ; [ DW_TAG_subprogram ]
!170 = metadata !{i32 786453, i32 0, metadata !"", i32 0, i32 0, i64 0, i64 0, i64 0, i32 0, null, metadata !171, i32 0, i32 0} ; [ DW_TAG_subroutine_type ]
!171 = metadata !{metadata !15, metadata !147, metadata !15, metadata !79}
!172 = metadata !{i32 786478, i32 0, metadata !38, metadata !"pthread_mutex_timedlock", metadata !"pthread_mutex_timedlock", metadata !"", metadata !38, i32 747, metadata !173, i1 false, i1 true, i32 0, i32 0, null, i32 256, i1 false, i32 (i32*, %struct.timespec*)* @pthread_mutex_timedlock, null, null, metadata !10, i32 747} ; [ DW_TAG_subprogram ]
!173 = metadata !{i32 786453, i32 0, metadata !"", i32 0, i32 0, i64 0, i64 0, i64 0, i32 0, null, metadata !174, i32 0, i32 0} ; [ DW_TAG_subroutine_type ]
!174 = metadata !{metadata !15, metadata !147, metadata !175}
!175 = metadata !{i32 786447, null, metadata !"", null, i32 0, i64 64, i64 64, i64 0, i32 0, metadata !176} ; [ DW_TAG_pointer_type ]
!176 = metadata !{i32 786470, null, metadata !"", null, i32 0, i64 0, i64 0, i64 0, i32 0, metadata !177} ; [ DW_TAG_const_type ]
!177 = metadata !{i32 786434, null, metadata !"timespec", metadata !91, i32 21, i64 8, i64 8, i32 0, i32 0, null, metadata !2, i32 0, null, null} ; [ DW_TAG_class_type ]
!178 = metadata !{i32 786478, i32 0, metadata !38, metadata !"pthread_mutexattr_destroy", metadata !"pthread_mutexattr_destroy", metadata !"", metadata !38, i32 762, metadata !179, i1 false, i1 true, i32 0, i32 0, null, i32 256, i1 false, i32 (i32*)* @pthread_mutexattr_destroy, null, null, metadata !10, i32 762} ; [ DW_TAG_subprogram ]
!179 = metadata !{i32 786453, i32 0, metadata !"", i32 0, i32 0, i64 0, i64 0, i64 0, i32 0, null, metadata !180, i32 0, i32 0} ; [ DW_TAG_subroutine_type ]
!180 = metadata !{metadata !15, metadata !181}
!181 = metadata !{i32 786447, null, metadata !"", null, i32 0, i64 64, i64 64, i64 0, i32 0, metadata !160} ; [ DW_TAG_pointer_type ]
!182 = metadata !{i32 786478, i32 0, metadata !38, metadata !"pthread_mutexattr_init", metadata !"pthread_mutexattr_init", metadata !"", metadata !38, i32 772, metadata !179, i1 false, i1 true, i32 0, i32 0, null, i32 256, i1 false, i32 (i32*)* @pthread_mutexattr_init, null, null, metadata !10, i32 772} ; [ DW_TAG_subprogram ]
!183 = metadata !{i32 786478, i32 0, metadata !38, metadata !"pthread_mutexattr_gettype", metadata !"pthread_mutexattr_gettype", metadata !"", metadata !38, i32 782, metadata !184, i1 false, i1 true, i32 0, i32 0, null, i32 256, i1 false, i32 (i32*, i32*)* @pthread_mutexattr_gettype, null, null, metadata !10, i32 782} ; [ DW_TAG_subprogram ]
!184 = metadata !{i32 786453, i32 0, metadata !"", i32 0, i32 0, i64 0, i64 0, i64 0, i32 0, null, metadata !185, i32 0, i32 0} ; [ DW_TAG_subroutine_type ]
!185 = metadata !{metadata !15, metadata !158, metadata !79}
!186 = metadata !{i32 786478, i32 0, metadata !38, metadata !"pthread_mutexattr_getprioceiling", metadata !"pthread_mutexattr_getprioceiling", metadata !"", metadata !38, i32 792, metadata !184, i1 false, i1 true, i32 0, i32 0, null, i32 256, i1 false, i32 (i32*, i32*)* @pthread_mutexattr_getprioceiling, null, null, metadata !10, i32 792} ; [ DW_TAG_subprogram ]
!187 = metadata !{i32 786478, i32 0, metadata !38, metadata !"pthread_mutexattr_getprotocol", metadata !"pthread_mutexattr_getprotocol", metadata !"", metadata !38, i32 797, metadata !184, i1 false, i1 true, i32 0, i32 0, null, i32 256, i1 false, i32 (i32*, i32*)* @pthread_mutexattr_getprotocol, null, null, metadata !10, i32 797} ; [ DW_TAG_subprogram ]
!188 = metadata !{i32 786478, i32 0, metadata !38, metadata !"pthread_mutexattr_getpshared", metadata !"pthread_mutexattr_getpshared", metadata !"", metadata !38, i32 802, metadata !184, i1 false, i1 true, i32 0, i32 0, null, i32 256, i1 false, i32 (i32*, i32*)* @pthread_mutexattr_getpshared, null, null, metadata !10, i32 802} ; [ DW_TAG_subprogram ]
!189 = metadata !{i32 786478, i32 0, metadata !38, metadata !"pthread_mutexattr_settype", metadata !"pthread_mutexattr_settype", metadata !"", metadata !38, i32 807, metadata !190, i1 false, i1 true, i32 0, i32 0, null, i32 256, i1 false, i32 (i32*, i32)* @pthread_mutexattr_settype, null, null, metadata !10, i32 807} ; [ DW_TAG_subprogram ]
!190 = metadata !{i32 786453, i32 0, metadata !"", i32 0, i32 0, i64 0, i64 0, i64 0, i32 0, null, metadata !191, i32 0, i32 0} ; [ DW_TAG_subroutine_type ]
!191 = metadata !{metadata !15, metadata !181, metadata !15}
!192 = metadata !{i32 786478, i32 0, metadata !38, metadata !"pthread_mutexattr_setprioceiling", metadata !"pthread_mutexattr_setprioceiling", metadata !"", metadata !38, i32 818, metadata !190, i1 false, i1 true, i32 0, i32 0, null, i32 256, i1 false, i32 (i32*, i32)* @pthread_mutexattr_setprioceiling, null, null, metadata !10, i32 818} ; [ DW_TAG_subprogram ]
!193 = metadata !{i32 786478, i32 0, metadata !38, metadata !"pthread_mutexattr_setprotocol", metadata !"pthread_mutexattr_setprotocol", metadata !"", metadata !38, i32 823, metadata !190, i1 false, i1 true, i32 0, i32 0, null, i32 256, i1 false, i32 (i32*, i32)* @pthread_mutexattr_setprotocol, null, null, metadata !10, i32 823} ; [ DW_TAG_subprogram ]
!194 = metadata !{i32 786478, i32 0, metadata !38, metadata !"pthread_mutexattr_setpshared", metadata !"pthread_mutexattr_setpshared", metadata !"", metadata !38, i32 829, metadata !190, i1 false, i1 true, i32 0, i32 0, null, i32 256, i1 false, i32 (i32*, i32)* @pthread_mutexattr_setpshared, null, null, metadata !10, i32 829} ; [ DW_TAG_subprogram ]
!195 = metadata !{i32 786478, i32 0, metadata !38, metadata !"pthread_spin_destroy", metadata !"pthread_spin_destroy", metadata !"", metadata !38, i32 836, metadata !196, i1 false, i1 true, i32 0, i32 0, null, i32 256, i1 false, i32 (i32*)* @pthread_spin_destroy, null, null, metadata !10, i32 836} ; [ DW_TAG_subprogram ]
!196 = metadata !{i32 786453, i32 0, metadata !"", i32 0, i32 0, i64 0, i64 0, i64 0, i32 0, null, metadata !197, i32 0, i32 0} ; [ DW_TAG_subroutine_type ]
!197 = metadata !{metadata !15, metadata !198}
!198 = metadata !{i32 786447, null, metadata !"", null, i32 0, i64 64, i64 64, i64 0, i32 0, metadata !199} ; [ DW_TAG_pointer_type ]
!199 = metadata !{i32 786454, null, metadata !"pthread_spinlock_t", metadata !38, i32 62, i64 0, i64 0, i64 0, i32 0, metadata !148} ; [ DW_TAG_typedef ]
!200 = metadata !{i32 786478, i32 0, metadata !38, metadata !"pthread_spin_init", metadata !"pthread_spin_init", metadata !"", metadata !38, i32 841, metadata !201, i1 false, i1 true, i32 0, i32 0, null, i32 256, i1 false, i32 (i32*, i32)* @pthread_spin_init, null, null, metadata !10, i32 841} ; [ DW_TAG_subprogram ]
!201 = metadata !{i32 786453, i32 0, metadata !"", i32 0, i32 0, i64 0, i64 0, i64 0, i32 0, null, metadata !202, i32 0, i32 0} ; [ DW_TAG_subroutine_type ]
!202 = metadata !{metadata !15, metadata !198, metadata !15}
!203 = metadata !{i32 786478, i32 0, metadata !38, metadata !"pthread_spin_lock", metadata !"pthread_spin_lock", metadata !"", metadata !38, i32 846, metadata !196, i1 false, i1 true, i32 0, i32 0, null, i32 256, i1 false, i32 (i32*)* @pthread_spin_lock, null, null, metadata !10, i32 846} ; [ DW_TAG_subprogram ]
!204 = metadata !{i32 786478, i32 0, metadata !38, metadata !"pthread_spin_trylock", metadata !"pthread_spin_trylock", metadata !"", metadata !38, i32 851, metadata !196, i1 false, i1 true, i32 0, i32 0, null, i32 256, i1 false, i32 (i32*)* @pthread_spin_trylock, null, null, metadata !10, i32 851} ; [ DW_TAG_subprogram ]
!205 = metadata !{i32 786478, i32 0, metadata !38, metadata !"pthread_spin_unlock", metadata !"pthread_spin_unlock", metadata !"", metadata !38, i32 856, metadata !196, i1 false, i1 true, i32 0, i32 0, null, i32 256, i1 false, i32 (i32*)* @pthread_spin_unlock, null, null, metadata !10, i32 856} ; [ DW_TAG_subprogram ]
!206 = metadata !{i32 786478, i32 0, metadata !38, metadata !"pthread_key_create", metadata !"pthread_key_create", metadata !"", metadata !38, i32 862, metadata !207, i1 false, i1 true, i32 0, i32 0, null, i32 256, i1 false, i32 (%struct._PerThreadData**, void (i8*)*)* @pthread_key_create, null, null, metadata !10, i32 862} ; [ DW_TAG_subprogram ]
!207 = metadata !{i32 786453, i32 0, metadata !"", i32 0, i32 0, i64 0, i64 0, i64 0, i32 0, null, metadata !208, i32 0, i32 0} ; [ DW_TAG_subroutine_type ]
!208 = metadata !{metadata !15, metadata !209, metadata !217}
!209 = metadata !{i32 786447, null, metadata !"", null, i32 0, i64 64, i64 64, i64 0, i32 0, metadata !210} ; [ DW_TAG_pointer_type ]
!210 = metadata !{i32 786454, null, metadata !"pthread_key_t", metadata !38, i32 73, i64 0, i64 0, i64 0, i32 0, metadata !211} ; [ DW_TAG_typedef ]
!211 = metadata !{i32 786447, null, metadata !"", null, i32 0, i64 64, i64 64, i64 0, i32 0, metadata !212} ; [ DW_TAG_pointer_type ]
!212 = metadata !{i32 786454, null, metadata !"_PerThreadData", metadata !38, i32 71, i64 0, i64 0, i64 0, i32 0, metadata !213} ; [ DW_TAG_typedef ]
!213 = metadata !{i32 786434, null, metadata !"_PerThreadData", metadata !149, i32 67, i64 256, i64 64, i32 0, i32 0, null, metadata !214, i32 0, null, null} ; [ DW_TAG_class_type ]
!214 = metadata !{metadata !215, metadata !216, metadata !218, metadata !220}
!215 = metadata !{i32 786445, metadata !213, metadata !"data", metadata !149, i32 68, i64 64, i64 64, i64 0, i32 0, metadata !67} ; [ DW_TAG_member ]
!216 = metadata !{i32 786445, metadata !213, metadata !"destructor", metadata !149, i32 69, i64 64, i64 64, i64 64, i32 0, metadata !217} ; [ DW_TAG_member ]
!217 = metadata !{i32 786447, null, metadata !"", null, i32 0, i64 64, i64 64, i64 0, i32 0, metadata !29} ; [ DW_TAG_pointer_type ]
!218 = metadata !{i32 786445, metadata !213, metadata !"next", metadata !149, i32 70, i64 64, i64 64, i64 128, i32 0, metadata !219} ; [ DW_TAG_member ]
!219 = metadata !{i32 786447, null, metadata !"", null, i32 0, i64 64, i64 64, i64 0, i32 0, metadata !213} ; [ DW_TAG_pointer_type ]
!220 = metadata !{i32 786445, metadata !213, metadata !"prev", metadata !149, i32 70, i64 64, i64 64, i64 192, i32 0, metadata !219} ; [ DW_TAG_member ]
!221 = metadata !{i32 786478, i32 0, metadata !38, metadata !"pthread_key_delete", metadata !"pthread_key_delete", metadata !"", metadata !38, i32 891, metadata !222, i1 false, i1 true, i32 0, i32 0, null, i32 256, i1 false, i32 (%struct._PerThreadData*)* @pthread_key_delete, null, null, metadata !10, i32 891} ; [ DW_TAG_subprogram ]
!222 = metadata !{i32 786453, i32 0, metadata !"", i32 0, i32 0, i64 0, i64 0, i64 0, i32 0, null, metadata !223, i32 0, i32 0} ; [ DW_TAG_subroutine_type ]
!223 = metadata !{metadata !15, metadata !210}
!224 = metadata !{i32 786478, i32 0, metadata !38, metadata !"pthread_setspecific", metadata !"pthread_setspecific", metadata !"", metadata !38, i32 913, metadata !225, i1 false, i1 true, i32 0, i32 0, null, i32 256, i1 false, i32 (%struct._PerThreadData*, i8*)* @pthread_setspecific, null, null, metadata !10, i32 913} ; [ DW_TAG_subprogram ]
!225 = metadata !{i32 786453, i32 0, metadata !"", i32 0, i32 0, i64 0, i64 0, i64 0, i32 0, null, metadata !226, i32 0, i32 0} ; [ DW_TAG_subroutine_type ]
!226 = metadata !{metadata !15, metadata !210, metadata !227}
!227 = metadata !{i32 786447, null, metadata !"", null, i32 0, i64 64, i64 64, i64 0, i32 0, metadata !228} ; [ DW_TAG_pointer_type ]
!228 = metadata !{i32 786470, null, metadata !"", null, i32 0, i64 0, i64 0, i64 0, i32 0, null} ; [ DW_TAG_const_type ]
!229 = metadata !{i32 786478, i32 0, metadata !38, metadata !"pthread_getspecific", metadata !"pthread_getspecific", metadata !"", metadata !38, i32 926, metadata !230, i1 false, i1 true, i32 0, i32 0, null, i32 256, i1 false, i8* (%struct._PerThreadData*)* @pthread_getspecific, null, null, metadata !10, i32 926} ; [ DW_TAG_subprogram ]
!230 = metadata !{i32 786453, i32 0, metadata !"", i32 0, i32 0, i64 0, i64 0, i64 0, i32 0, null, metadata !231, i32 0, i32 0} ; [ DW_TAG_subroutine_type ]
!231 = metadata !{metadata !9, metadata !210}
